; Listing generated by Microsoft (R) Optimizing Compiler Version 19.27.28826.0 

include listing.inc

INCLUDELIB LIBCMTD
INCLUDELIB OLDNAMES

msvcjmc	SEGMENT
__5AC9DD09_vcruntime_new@h DB 01H
__09340588_corecrt_math@h DB 01H
__24E9E95F_stdlib@h DB 01H
__552ECFDF_cstdlib DB 01H
__BA2ED0AC_cmath DB 01H
__F66CEB67_corecrt_stdio_config@h DB 01H
__101834BA_corecrt_wstdio@h DB 01H
__AD6A91B7_stdio@h DB 01H
__367CC694_corecrt_memcpy_s@h DB 01H
__35D7DDB3_corecrt_memory@h DB 01H
__DC9673E3_corecrt_wstring@h DB 01H
__A29A7DFB_string@h DB 01H
__5467428D_corecrt_wconio@h DB 01H
__4442441F_corecrt_wio@h DB 01H
__45F4AF76_corecrt_wtime@h DB 01H
__186FF47F_stat@h DB 01H
__534C724A_wchar@h DB 01H
__F0E51572_cstddef DB 01H
__F58B0143_type_traits DB 01H
__99E94133_xutility DB 01H
__B0C4CEA9_malloc@h DB 01H
__716CC96B_vcruntime_exception@h DB 01H
__097766F1_exception DB 01H
__AA5F2746_limits DB 01H
__08B62997_xmemory DB 01H
__1C0DC9ED_tuple DB 01H
__8FA12400_xpolymorphic_allocator@h DB 01H
__7C65AF0B_xstring DB 01H
__80395CAC_stdexcept DB 01H
__07794A54_xcall_once@h DB 01H
__C16A7B84_atomic DB 01H
__B8245874_system_error DB 01H
__C9434DF7_vcruntime_typeinfo@h DB 01H
__E936B22A_typeinfo DB 01H
__16F12BC8_memory DB 01H
__3AB47CC7_xfacet DB 01H
__7242C389_ctype@h DB 01H
__F6BF51E2_xlocinfo DB 01H
__A35BDB3A_xlocale DB 01H
__CF5A26F1_xiosbase DB 01H
__3DDCBD2D_xlocnum DB 01H
__FEAA7CF0_ios DB 01H
__B3072CAE_xtree DB 01H
__E3BB2425_algorithm DB 01H
__D794369C_Ref@h DB 01H
__F49A7A92_Allocator@h DB 01H
__103213B5_Application@cpp DB 01H
__65670D5B_RefImpl@h DB 01H
__B04B01FE_ostream DB 01H
__FE29A818_map DB 01H
__62234A54_utility DB 01H
__037BEA27_xatomic@h DB 01H
__953CDD46_xstddef DB 01H
__8299E410_streambuf DB 01H
__66B6F2C0_iosfwd DB 01H
msvcjmc	ENDS
PUBLIC	?__empty_global_delete@@YAXPEAX@Z		; __empty_global_delete
PUBLIC	?__empty_global_delete@@YAXPEAX_K@Z		; __empty_global_delete
PUBLIC	?__empty_global_delete@@YAXPEAXW4align_val_t@std@@@Z ; __empty_global_delete
PUBLIC	?__empty_global_delete@@YAXPEAX_KW4align_val_t@std@@@Z ; __empty_global_delete
PUBLIC	??2@YAPEAX_KPEAX@Z				; operator new
PUBLIC	??0exception@std@@QEAA@QEBD@Z			; std::exception::exception
PUBLIC	??0exception@std@@QEAA@QEBDH@Z			; std::exception::exception
PUBLIC	??0exception@std@@QEAA@AEBV01@@Z		; std::exception::exception
PUBLIC	??1exception@std@@UEAA@XZ			; std::exception::~exception
PUBLIC	?what@exception@std@@UEBAPEBDXZ			; std::exception::what
PUBLIC	??_Gexception@std@@UEAAPEAXI@Z			; std::exception::`scalar deleting destructor'
PUBLIC	??0bad_alloc@std@@AEAA@QEBD@Z			; std::bad_alloc::bad_alloc
PUBLIC	??1bad_alloc@std@@UEAA@XZ			; std::bad_alloc::~bad_alloc
PUBLIC	??0bad_alloc@std@@QEAA@AEBV01@@Z		; std::bad_alloc::bad_alloc
PUBLIC	??_Gbad_alloc@std@@UEAAPEAXI@Z			; std::bad_alloc::`scalar deleting destructor'
PUBLIC	??0bad_array_new_length@std@@QEAA@XZ		; std::bad_array_new_length::bad_array_new_length
PUBLIC	??1bad_array_new_length@std@@UEAA@XZ		; std::bad_array_new_length::~bad_array_new_length
PUBLIC	??0bad_array_new_length@std@@QEAA@AEBV01@@Z	; std::bad_array_new_length::bad_array_new_length
PUBLIC	??_Gbad_array_new_length@std@@UEAAPEAXI@Z	; std::bad_array_new_length::`scalar deleting destructor'
PUBLIC	?_Throw_bad_array_new_length@std@@YAXXZ		; std::_Throw_bad_array_new_length
PUBLIC	?max@?$numeric_limits@_J@std@@SA_JXZ		; std::numeric_limits<__int64>::max
PUBLIC	?_Allocate@_Default_allocate_traits@std@@SAPEAX_K@Z ; std::_Default_allocate_traits::_Allocate
PUBLIC	?_Adjust_manually_vector_aligned@std@@YAXAEAPEAXAEA_K@Z ; std::_Adjust_manually_vector_aligned
PUBLIC	??$_Convert_size@_K@std@@YA_K_K@Z		; std::_Convert_size<unsigned __int64>
PUBLIC	??0_Container_proxy@std@@QEAA@PEAU_Container_base12@1@@Z ; std::_Container_proxy::_Container_proxy
PUBLIC	??0_Container_base12@std@@QEAA@XZ		; std::_Container_base12::_Container_base12
PUBLIC	?_Orphan_all@_Container_base12@std@@QEAAXXZ	; std::_Container_base12::_Orphan_all
PUBLIC	?_Swap_proxy_and_iterators@_Container_base12@std@@QEAAXAEAU12@@Z ; std::_Container_base12::_Swap_proxy_and_iterators
PUBLIC	?_Release@_Basic_container_proxy_ptr12@std@@QEAAXXZ ; std::_Basic_container_proxy_ptr12::_Release
PUBLIC	??0?$tuple@$$V@std@@QEAA@XZ			; std::tuple<>::tuple<>
PUBLIC	??0?$tuple@$$V@std@@QEAA@AEBV01@@Z		; std::tuple<>::tuple<>
PUBLIC	?length@?$_Narrow_char_traits@DH@std@@SA_KQEBD@Z ; std::_Narrow_char_traits<char,int>::length
PUBLIC	?copy@?$_Narrow_char_traits@DH@std@@SAPEADQEADQEBD_K@Z ; std::_Narrow_char_traits<char,int>::copy
PUBLIC	?move@?$_Narrow_char_traits@DH@std@@SAPEADQEADQEBD_K@Z ; std::_Narrow_char_traits<char,int>::move
PUBLIC	?assign@?$_Narrow_char_traits@DH@std@@SAXAEADAEBD@Z ; std::_Narrow_char_traits<char,int>::assign
PUBLIC	?to_int_type@?$_Narrow_char_traits@DH@std@@SAHAEBD@Z ; std::_Narrow_char_traits<char,int>::to_int_type
PUBLIC	?eq_int_type@?$_Narrow_char_traits@DH@std@@SA_NAEBH0@Z ; std::_Narrow_char_traits<char,int>::eq_int_type
PUBLIC	?eof@?$_Narrow_char_traits@DH@std@@SAHXZ	; std::_Narrow_char_traits<char,int>::eof
PUBLIC	?_Xlen_string@std@@YAXXZ			; std::_Xlen_string
PUBLIC	??0?$allocator@D@std@@QEAA@XZ			; std::allocator<char>::allocator<char>
PUBLIC	?deallocate@?$allocator@D@std@@QEAAXQEAD_K@Z	; std::allocator<char>::deallocate
PUBLIC	?allocate@?$allocator@D@std@@QEAAPEAD_K@Z	; std::allocator<char>::allocate
PUBLIC	?max_size@?$_Default_allocator_traits@V?$allocator@D@std@@@std@@SA_KAEBV?$allocator@D@2@@Z ; std::_Default_allocator_traits<std::allocator<char> >::max_size
PUBLIC	?select_on_container_copy_construction@?$_Default_allocator_traits@V?$allocator@D@std@@@std@@SA?AV?$allocator@D@2@AEBV32@@Z ; std::_Default_allocator_traits<std::allocator<char> >::select_on_container_copy_construction
PUBLIC	??0?$_String_val@U?$_Simple_types@D@std@@@std@@QEAA@XZ ; std::_String_val<std::_Simple_types<char> >::_String_val<std::_Simple_types<char> >
PUBLIC	?_Myptr@?$_String_val@U?$_Simple_types@D@std@@@std@@QEAAPEADXZ ; std::_String_val<std::_Simple_types<char> >::_Myptr
PUBLIC	?_Myptr@?$_String_val@U?$_Simple_types@D@std@@@std@@QEBAPEBDXZ ; std::_String_val<std::_Simple_types<char> >::_Myptr
PUBLIC	?_Large_string_engaged@?$_String_val@U?$_Simple_types@D@std@@@std@@QEBA_NXZ ; std::_String_val<std::_Simple_types<char> >::_Large_string_engaged
PUBLIC	??0_Bxty@?$_String_val@U?$_Simple_types@D@std@@@std@@QEAA@XZ ; std::_String_val<std::_Simple_types<char> >::_Bxty::_Bxty
PUBLIC	??1_Bxty@?$_String_val@U?$_Simple_types@D@std@@@std@@QEAA@XZ ; std::_String_val<std::_Simple_types<char> >::_Bxty::~_Bxty
PUBLIC	??1?$_String_val@U?$_Simple_types@D@std@@@std@@QEAA@XZ ; std::_String_val<std::_Simple_types<char> >::~_String_val<std::_Simple_types<char> >
PUBLIC	??0?$basic_string@DU?$char_traits@D@std@@V?$allocator@D@2@@std@@QEAA@AEBV01@@Z ; std::basic_string<char,std::char_traits<char>,std::allocator<char> >::basic_string<char,std::char_traits<char>,std::allocator<char> >
PUBLIC	??0?$basic_string@DU?$char_traits@D@std@@V?$allocator@D@2@@std@@QEAA@QEBD_K@Z ; std::basic_string<char,std::char_traits<char>,std::allocator<char> >::basic_string<char,std::char_traits<char>,std::allocator<char> >
PUBLIC	??0?$basic_string@DU?$char_traits@D@std@@V?$allocator@D@2@@std@@QEAA@QEBD@Z ; std::basic_string<char,std::char_traits<char>,std::allocator<char> >::basic_string<char,std::char_traits<char>,std::allocator<char> >
PUBLIC	??0?$basic_string@DU?$char_traits@D@std@@V?$allocator@D@2@@std@@QEAA@$$QEAV01@@Z ; std::basic_string<char,std::char_traits<char>,std::allocator<char> >::basic_string<char,std::char_traits<char>,std::allocator<char> >
PUBLIC	?_Memcpy_val_from@?$basic_string@DU?$char_traits@D@std@@V?$allocator@D@2@@std@@AEAAXAEBV12@@Z ; std::basic_string<char,std::char_traits<char>,std::allocator<char> >::_Memcpy_val_from
PUBLIC	?_Take_contents@?$basic_string@DU?$char_traits@D@std@@V?$allocator@D@2@@std@@AEAAXAEAV12@U?$integral_constant@_N$00@2@@Z ; std::basic_string<char,std::char_traits<char>,std::allocator<char> >::_Take_contents
PUBLIC	?_Construct_lv_contents@?$basic_string@DU?$char_traits@D@std@@V?$allocator@D@2@@std@@AEAAXAEBV12@@Z ; std::basic_string<char,std::char_traits<char>,std::allocator<char> >::_Construct_lv_contents
PUBLIC	??1?$basic_string@DU?$char_traits@D@std@@V?$allocator@D@2@@std@@QEAA@XZ ; std::basic_string<char,std::char_traits<char>,std::allocator<char> >::~basic_string<char,std::char_traits<char>,std::allocator<char> >
PUBLIC	?append@?$basic_string@DU?$char_traits@D@std@@V?$allocator@D@2@@std@@QEAAAEAV12@AEBV12@@Z ; std::basic_string<char,std::char_traits<char>,std::allocator<char> >::append
PUBLIC	?append@?$basic_string@DU?$char_traits@D@std@@V?$allocator@D@2@@std@@QEAAAEAV12@QEBD_K@Z ; std::basic_string<char,std::char_traits<char>,std::allocator<char> >::append
PUBLIC	?append@?$basic_string@DU?$char_traits@D@std@@V?$allocator@D@2@@std@@QEAAAEAV12@QEBD@Z ; std::basic_string<char,std::char_traits<char>,std::allocator<char> >::append
PUBLIC	?assign@?$basic_string@DU?$char_traits@D@std@@V?$allocator@D@2@@std@@QEAAAEAV12@QEBD_K@Z ; std::basic_string<char,std::char_traits<char>,std::allocator<char> >::assign
PUBLIC	?assign@?$basic_string@DU?$char_traits@D@std@@V?$allocator@D@2@@std@@QEAAAEAV12@QEBD@Z ; std::basic_string<char,std::char_traits<char>,std::allocator<char> >::assign
PUBLIC	?c_str@?$basic_string@DU?$char_traits@D@std@@V?$allocator@D@2@@std@@QEBAPEBDXZ ; std::basic_string<char,std::char_traits<char>,std::allocator<char> >::c_str
PUBLIC	?size@?$basic_string@DU?$char_traits@D@std@@V?$allocator@D@2@@std@@QEBA_KXZ ; std::basic_string<char,std::char_traits<char>,std::allocator<char> >::size
PUBLIC	?max_size@?$basic_string@DU?$char_traits@D@std@@V?$allocator@D@2@@std@@QEBA_KXZ ; std::basic_string<char,std::char_traits<char>,std::allocator<char> >::max_size
PUBLIC	?empty@?$basic_string@DU?$char_traits@D@std@@V?$allocator@D@2@@std@@QEBA_NXZ ; std::basic_string<char,std::char_traits<char>,std::allocator<char> >::empty
PUBLIC	?_Calculate_growth@?$basic_string@DU?$char_traits@D@std@@V?$allocator@D@2@@std@@CA_K_K00@Z ; std::basic_string<char,std::char_traits<char>,std::allocator<char> >::_Calculate_growth
PUBLIC	?_Calculate_growth@?$basic_string@DU?$char_traits@D@std@@V?$allocator@D@2@@std@@AEBA_K_K@Z ; std::basic_string<char,std::char_traits<char>,std::allocator<char> >::_Calculate_growth
PUBLIC	?_Tidy_init@?$basic_string@DU?$char_traits@D@std@@V?$allocator@D@2@@std@@AEAAXXZ ; std::basic_string<char,std::char_traits<char>,std::allocator<char> >::_Tidy_init
PUBLIC	?_Tidy_deallocate@?$basic_string@DU?$char_traits@D@std@@V?$allocator@D@2@@std@@AEAAXXZ ; std::basic_string<char,std::char_traits<char>,std::allocator<char> >::_Tidy_deallocate
PUBLIC	?_Swap_proxy_and_iterators@?$basic_string@DU?$char_traits@D@std@@V?$allocator@D@2@@std@@AEAAXAEAV12@@Z ; std::basic_string<char,std::char_traits<char>,std::allocator<char> >::_Swap_proxy_and_iterators
PUBLIC	?_Getal@?$basic_string@DU?$char_traits@D@std@@V?$allocator@D@2@@std@@AEAAAEAV?$allocator@D@2@XZ ; std::basic_string<char,std::char_traits<char>,std::allocator<char> >::_Getal
PUBLIC	?_Getal@?$basic_string@DU?$char_traits@D@std@@V?$allocator@D@2@@std@@AEBAAEBV?$allocator@D@2@XZ ; std::basic_string<char,std::char_traits<char>,std::allocator<char> >::_Getal
PUBLIC	?_Get_first@?$_Compressed_pair@V?$allocator@D@std@@V?$_String_val@U?$_Simple_types@D@std@@@2@$00@std@@QEAAAEAV?$allocator@D@2@XZ ; std::_Compressed_pair<std::allocator<char>,std::_String_val<std::_Simple_types<char> >,1>::_Get_first
PUBLIC	?_Get_first@?$_Compressed_pair@V?$allocator@D@std@@V?$_String_val@U?$_Simple_types@D@std@@@2@$00@std@@QEBAAEBV?$allocator@D@2@XZ ; std::_Compressed_pair<std::allocator<char>,std::_String_val<std::_Simple_types<char> >,1>::_Get_first
PUBLIC	??1?$_Compressed_pair@V?$allocator@D@std@@V?$_String_val@U?$_Simple_types@D@std@@@2@$00@std@@QEAA@XZ ; std::_Compressed_pair<std::allocator<char>,std::_String_val<std::_Simple_types<char> >,1>::~_Compressed_pair<std::allocator<char>,std::_String_val<std::_Simple_types<char> >,1>
PUBLIC	??0runtime_error@std@@QEAA@AEBV?$basic_string@DU?$char_traits@D@std@@V?$allocator@D@2@@1@@Z ; std::runtime_error::runtime_error
PUBLIC	??1runtime_error@std@@UEAA@XZ			; std::runtime_error::~runtime_error
PUBLIC	??0runtime_error@std@@QEAA@AEBV01@@Z		; std::runtime_error::runtime_error
PUBLIC	??_Gruntime_error@std@@UEAAPEAXI@Z		; std::runtime_error::`scalar deleting destructor'
PUBLIC	?_Load_barrier@std@@YAXW4memory_order@1@@Z	; std::_Load_barrier
PUBLIC	?make_error_code@std@@YA?AVerror_code@1@W4io_errc@1@@Z ; std::make_error_code
PUBLIC	?iostream_category@std@@YAAEBVerror_category@1@XZ ; std::iostream_category
PUBLIC	??1error_category@std@@UEAA@XZ			; std::error_category::~error_category
PUBLIC	?default_error_condition@error_category@std@@UEBA?AVerror_condition@2@H@Z ; std::error_category::default_error_condition
PUBLIC	?equivalent@error_category@std@@UEBA_NHAEBVerror_condition@2@@Z ; std::error_category::equivalent
PUBLIC	?equivalent@error_category@std@@UEBA_NAEBVerror_code@2@H@Z ; std::error_category::equivalent
PUBLIC	??8error_category@std@@QEBA_NAEBV01@@Z		; std::error_category::operator==
PUBLIC	??0error_category@std@@IEAA@_K@Z		; std::error_category::error_category
PUBLIC	??0error_code@std@@QEAA@HAEBVerror_category@1@@Z ; std::error_code::error_code
PUBLIC	?value@error_code@std@@QEBAHXZ			; std::error_code::value
PUBLIC	?category@error_code@std@@QEBAAEBVerror_category@2@XZ ; std::error_code::category
PUBLIC	?message@error_code@std@@QEBA?AV?$basic_string@DU?$char_traits@D@std@@V?$allocator@D@2@@2@XZ ; std::error_code::message
PUBLIC	??0error_condition@std@@QEAA@HAEBVerror_category@1@@Z ; std::error_condition::error_condition
PUBLIC	?value@error_condition@std@@QEBAHXZ		; std::error_condition::value
PUBLIC	?category@error_condition@std@@QEBAAEBVerror_category@2@XZ ; std::error_condition::category
PUBLIC	??8std@@YA_NAEBVerror_condition@0@0@Z		; std::operator==
PUBLIC	?_Makestr@_System_error@std@@CA?AV?$basic_string@DU?$char_traits@D@std@@V?$allocator@D@2@@2@Verror_code@2@V32@@Z ; std::_System_error::_Makestr
PUBLIC	??0_System_error@std@@IEAA@Verror_code@1@AEBV?$basic_string@DU?$char_traits@D@std@@V?$allocator@D@2@@1@@Z ; std::_System_error::_System_error
PUBLIC	??1_System_error@std@@UEAA@XZ			; std::_System_error::~_System_error
PUBLIC	??0_System_error@std@@QEAA@AEBV01@@Z		; std::_System_error::_System_error
PUBLIC	??_G_System_error@std@@UEAAPEAXI@Z		; std::_System_error::`scalar deleting destructor'
PUBLIC	??0system_error@std@@QEAA@Verror_code@1@PEBD@Z	; std::system_error::system_error
PUBLIC	??1system_error@std@@UEAA@XZ			; std::system_error::~system_error
PUBLIC	??0system_error@std@@QEAA@AEBV01@@Z		; std::system_error::system_error
PUBLIC	??_Gsystem_error@std@@UEAAPEAXI@Z		; std::system_error::`scalar deleting destructor'
PUBLIC	??0_Iostream_error_category2@std@@QEAA@XZ	; std::_Iostream_error_category2::_Iostream_error_category2
PUBLIC	?name@_Iostream_error_category2@std@@UEBAPEBDXZ	; std::_Iostream_error_category2::name
PUBLIC	?message@_Iostream_error_category2@std@@UEBA?AV?$basic_string@DU?$char_traits@D@std@@V?$allocator@D@2@@2@H@Z ; std::_Iostream_error_category2::message
PUBLIC	??1_Iostream_error_category2@std@@UEAA@XZ	; std::_Iostream_error_category2::~_Iostream_error_category2
PUBLIC	??_G_Iostream_error_category2@std@@UEAAPEAXI@Z	; std::_Iostream_error_category2::`scalar deleting destructor'
PUBLIC	??$_Immortalize_memcpy_image@V_Iostream_error_category2@std@@@std@@YAAEBV_Iostream_error_category2@0@XZ ; std::_Immortalize_memcpy_image<std::_Iostream_error_category2>
PUBLIC	??0bad_cast@std@@QEAA@XZ			; std::bad_cast::bad_cast
PUBLIC	??1bad_cast@std@@UEAA@XZ			; std::bad_cast::~bad_cast
PUBLIC	??0bad_cast@std@@QEAA@AEBV01@@Z			; std::bad_cast::bad_cast
PUBLIC	??_Gbad_cast@std@@UEAAPEAXI@Z			; std::bad_cast::`scalar deleting destructor'
PUBLIC	?_Throw_bad_cast@std@@YAXXZ			; std::_Throw_bad_cast
PUBLIC	??1_Facet_base@std@@UEAA@XZ			; std::_Facet_base::~_Facet_base
PUBLIC	??0_Facet_base@std@@QEAA@XZ			; std::_Facet_base::_Facet_base
PUBLIC	??_G_Facet_base@std@@UEAAPEAXI@Z		; std::_Facet_base::`scalar deleting destructor'
PUBLIC	??0_Locinfo@std@@QEAA@PEBD@Z			; std::_Locinfo::_Locinfo
PUBLIC	??1_Locinfo@std@@QEAA@XZ			; std::_Locinfo::~_Locinfo
PUBLIC	?_Getctype@_Locinfo@std@@QEBA?AU_Ctypevec@@XZ	; std::_Locinfo::_Getctype
PUBLIC	??0?$_Yarn@D@std@@QEAA@XZ			; std::_Yarn<char>::_Yarn<char>
PUBLIC	??1?$_Yarn@D@std@@QEAA@XZ			; std::_Yarn<char>::~_Yarn<char>
PUBLIC	?c_str@?$_Yarn@D@std@@QEBAPEBDXZ		; std::_Yarn<char>::c_str
PUBLIC	?_Tidy@?$_Yarn@D@std@@AEAAXXZ			; std::_Yarn<char>::_Tidy
PUBLIC	??0?$_Yarn@_W@std@@QEAA@XZ			; std::_Yarn<wchar_t>::_Yarn<wchar_t>
PUBLIC	??1?$_Yarn@_W@std@@QEAA@XZ			; std::_Yarn<wchar_t>::~_Yarn<wchar_t>
PUBLIC	?_Tidy@?$_Yarn@_W@std@@AEAAXXZ			; std::_Yarn<wchar_t>::_Tidy
PUBLIC	??2_Crt_new_delete@std@@SAPEAX_K@Z		; std::_Crt_new_delete::operator new
PUBLIC	??2_Crt_new_delete@std@@SAPEAX_KAEBUnothrow_t@1@@Z ; std::_Crt_new_delete::operator new
PUBLIC	??3_Crt_new_delete@std@@SAXPEAX@Z		; std::_Crt_new_delete::operator delete
PUBLIC	??Bid@locale@std@@QEAA_KXZ			; std::locale::id::operator unsigned __int64
PUBLIC	?_Incref@facet@locale@std@@UEAAXXZ		; std::locale::facet::_Incref
PUBLIC	?_Decref@facet@locale@std@@UEAAPEAV_Facet_base@3@XZ ; std::locale::facet::_Decref
PUBLIC	??0facet@locale@std@@IEAA@_K@Z			; std::locale::facet::facet
PUBLIC	??1facet@locale@std@@MEAA@XZ			; std::locale::facet::~facet
PUBLIC	??_Gfacet@locale@std@@MEAAPEAXI@Z		; std::locale::facet::`scalar deleting destructor'
PUBLIC	??0locale@std@@QEAA@AEBV01@@Z			; std::locale::locale
PUBLIC	??1locale@std@@QEAA@XZ				; std::locale::~locale
PUBLIC	?c_str@locale@std@@QEBAPEBDXZ			; std::locale::c_str
PUBLIC	?_Getfacet@locale@std@@QEBAPEBVfacet@12@_K@Z	; std::locale::_Getfacet
PUBLIC	??$_Adl_verify_range@PEBDPEBD@std@@YAXAEBQEBD0@Z ; std::_Adl_verify_range<char const *,char const *>
PUBLIC	??0ctype_base@std@@QEAA@_K@Z			; std::ctype_base::ctype_base
PUBLIC	??1ctype_base@std@@UEAA@XZ			; std::ctype_base::~ctype_base
PUBLIC	??_Gctype_base@std@@UEAAPEAXI@Z			; std::ctype_base::`scalar deleting destructor'
PUBLIC	?widen@?$ctype@D@std@@QEBADD@Z			; std::ctype<char>::widen
PUBLIC	??0?$ctype@D@std@@QEAA@AEBV_Locinfo@1@_K@Z	; std::ctype<char>::ctype<char>
PUBLIC	?_Getcat@?$ctype@D@std@@SA_KPEAPEBVfacet@locale@2@PEBV42@@Z ; std::ctype<char>::_Getcat
PUBLIC	??1?$ctype@D@std@@MEAA@XZ			; std::ctype<char>::~ctype<char>
PUBLIC	?_Init@?$ctype@D@std@@IEAAXAEBV_Locinfo@2@@Z	; std::ctype<char>::_Init
PUBLIC	?_Tidy@?$ctype@D@std@@IEAAXXZ			; std::ctype<char>::_Tidy
PUBLIC	?do_tolower@?$ctype@D@std@@MEBADD@Z		; std::ctype<char>::do_tolower
PUBLIC	?do_tolower@?$ctype@D@std@@MEBAPEBDPEADPEBD@Z	; std::ctype<char>::do_tolower
PUBLIC	?do_toupper@?$ctype@D@std@@MEBADD@Z		; std::ctype<char>::do_toupper
PUBLIC	?do_toupper@?$ctype@D@std@@MEBAPEBDPEADPEBD@Z	; std::ctype<char>::do_toupper
PUBLIC	?do_widen@?$ctype@D@std@@MEBADD@Z		; std::ctype<char>::do_widen
PUBLIC	?do_widen@?$ctype@D@std@@MEBAPEBDPEBD0PEAD@Z	; std::ctype<char>::do_widen
PUBLIC	?do_narrow@?$ctype@D@std@@MEBADDD@Z		; std::ctype<char>::do_narrow
PUBLIC	?do_narrow@?$ctype@D@std@@MEBAPEBDPEBD0DPEAD@Z	; std::ctype<char>::do_narrow
PUBLIC	??_G?$ctype@D@std@@MEAAPEAXI@Z			; std::ctype<char>::`scalar deleting destructor'
PUBLIC	??$use_facet@V?$ctype@D@std@@@std@@YAAEBV?$ctype@D@0@AEBVlocale@0@@Z ; std::use_facet<std::ctype<char> >
PUBLIC	??$_Adl_verify_range@PEADPEBD@std@@YAXAEBQEADAEBQEBD@Z ; std::_Adl_verify_range<char *,char const *>
PUBLIC	??0failure@ios_base@std@@QEAA@PEBDAEBVerror_code@2@@Z ; std::ios_base::failure::failure
PUBLIC	??1failure@ios_base@std@@UEAA@XZ		; std::ios_base::failure::~failure
PUBLIC	??0failure@ios_base@std@@QEAA@AEBV012@@Z	; std::ios_base::failure::failure
PUBLIC	??_Gfailure@ios_base@std@@UEAAPEAXI@Z		; std::ios_base::failure::`scalar deleting destructor'
PUBLIC	?clear@ios_base@std@@QEAAXH_N@Z			; std::ios_base::clear
PUBLIC	?rdstate@ios_base@std@@QEBAHXZ			; std::ios_base::rdstate
PUBLIC	?good@ios_base@std@@QEBA_NXZ			; std::ios_base::good
PUBLIC	?flags@ios_base@std@@QEBAHXZ			; std::ios_base::flags
PUBLIC	?width@ios_base@std@@QEBA_JXZ			; std::ios_base::width
PUBLIC	?width@ios_base@std@@QEAA_J_J@Z			; std::ios_base::width
PUBLIC	?getloc@ios_base@std@@QEBA?AVlocale@2@XZ	; std::ios_base::getloc
PUBLIC	?_Throw_tree_length_error@std@@YAXXZ		; std::_Throw_tree_length_error
PUBLIC	??1IRef@@UEAA@XZ				; IRef::~IRef
PUBLIC	?SetHandle@IRef@@QEAAX_K@Z			; IRef::SetHandle
PUBLIC	??0IRef@@QEAA@XZ				; IRef::IRef
PUBLIC	??0IRef@@QEAA@AEBV0@@Z				; IRef::IRef
PUBLIC	??_GIRef@@UEAAPEAXI@Z				; IRef::`scalar deleting destructor'
PUBLIC	?GetInternalRef@@YA?AUInternalRef@@_K@Z		; GetInternalRef
PUBLIC	?GetInternalRef@Allocator@@SA?AUInternalRef@@_K@Z ; Allocator::GetInternalRef
PUBLIC	??0?$allocator@U?$_Tree_node@U?$pair@$$CB_KUInternalRef@@@std@@PEAX@std@@@std@@QEAA@XZ ; std::allocator<std::_Tree_node<std::pair<unsigned __int64 const ,InternalRef>,void *> >::allocator<std::_Tree_node<std::pair<unsigned __int64 const ,InternalRef>,void *> >
PUBLIC	?deallocate@?$allocator@U?$_Tree_node@U?$pair@$$CB_KUInternalRef@@@std@@PEAX@std@@@std@@QEAAXQEAU?$_Tree_node@U?$pair@$$CB_KUInternalRef@@@std@@PEAX@2@_K@Z ; std::allocator<std::_Tree_node<std::pair<unsigned __int64 const ,InternalRef>,void *> >::deallocate
PUBLIC	?allocate@?$allocator@U?$_Tree_node@U?$pair@$$CB_KUInternalRef@@@std@@PEAX@std@@@std@@QEAAPEAU?$_Tree_node@U?$pair@$$CB_KUInternalRef@@@std@@PEAX@2@_K@Z ; std::allocator<std::_Tree_node<std::pair<unsigned __int64 const ,InternalRef>,void *> >::allocate
PUBLIC	?deallocate@?$_Default_allocator_traits@V?$allocator@U?$_Tree_node@U?$pair@$$CB_KUInternalRef@@@std@@PEAX@std@@@std@@@std@@SAXAEAV?$allocator@U?$_Tree_node@U?$pair@$$CB_KUInternalRef@@@std@@PEAX@std@@@2@QEAU?$_Tree_node@U?$pair@$$CB_KUInternalRef@@@std@@PEAX@2@_K@Z ; std::_Default_allocator_traits<std::allocator<std::_Tree_node<std::pair<unsigned __int64 const ,InternalRef>,void *> > >::deallocate
PUBLIC	?max_size@?$_Default_allocator_traits@V?$allocator@U?$_Tree_node@U?$pair@$$CB_KUInternalRef@@@std@@PEAX@std@@@std@@@std@@SA_KAEBV?$allocator@U?$_Tree_node@U?$pair@$$CB_KUInternalRef@@@std@@PEAX@std@@@2@@Z ; std::_Default_allocator_traits<std::allocator<std::_Tree_node<std::pair<unsigned __int64 const ,InternalRef>,void *> > >::max_size
PUBLIC	??0?$_Tree@V?$_Tmap_traits@_KUInternalRef@@U?$less@_K@std@@V?$allocator@U?$pair@$$CB_KUInternalRef@@@std@@@3@$0A@@std@@@std@@QEAA@AEBU?$less@_K@1@@Z ; std::_Tree<std::_Tmap_traits<unsigned __int64,InternalRef,std::less<unsigned __int64>,std::allocator<std::pair<unsigned __int64 const ,InternalRef> >,0> >::_Tree<std::_Tmap_traits<unsigned __int64,InternalRef,std::less<unsigned __int64>,std::allocator<std::pair<unsigned __int64 const ,InternalRef> >,0> >
PUBLIC	??1?$_Tree@V?$_Tmap_traits@_KUInternalRef@@U?$less@_K@std@@V?$allocator@U?$pair@$$CB_KUInternalRef@@@std@@@3@$0A@@std@@@std@@QEAA@XZ ; std::_Tree<std::_Tmap_traits<unsigned __int64,InternalRef,std::less<unsigned __int64>,std::allocator<std::pair<unsigned __int64 const ,InternalRef> >,0> >::~_Tree<std::_Tmap_traits<unsigned __int64,InternalRef,std::less<unsigned __int64>,std::allocator<std::pair<unsigned __int64 const ,InternalRef> >,0> >
PUBLIC	?max_size@?$_Tree@V?$_Tmap_traits@_KUInternalRef@@U?$less@_K@std@@V?$allocator@U?$pair@$$CB_KUInternalRef@@@std@@@3@$0A@@std@@@std@@QEBA_KXZ ; std::_Tree<std::_Tmap_traits<unsigned __int64,InternalRef,std::less<unsigned __int64>,std::allocator<std::pair<unsigned __int64 const ,InternalRef> >,0> >::max_size
PUBLIC	?_Check_grow_by_1@?$_Tree@V?$_Tmap_traits@_KUInternalRef@@U?$less@_K@std@@V?$allocator@U?$pair@$$CB_KUInternalRef@@@std@@@3@$0A@@std@@@std@@IEAAXXZ ; std::_Tree<std::_Tmap_traits<unsigned __int64,InternalRef,std::less<unsigned __int64>,std::allocator<std::pair<unsigned __int64 const ,InternalRef> >,0> >::_Check_grow_by_1
PUBLIC	?_Alloc_sentinel_and_proxy@?$_Tree@V?$_Tmap_traits@_KUInternalRef@@U?$less@_K@std@@V?$allocator@U?$pair@$$CB_KUInternalRef@@@std@@@3@$0A@@std@@@std@@IEAAXXZ ; std::_Tree<std::_Tmap_traits<unsigned __int64,InternalRef,std::less<unsigned __int64>,std::allocator<std::pair<unsigned __int64 const ,InternalRef> >,0> >::_Alloc_sentinel_and_proxy
PUBLIC	?_Getcomp@?$_Tree@V?$_Tmap_traits@_KUInternalRef@@U?$less@_K@std@@V?$allocator@U?$pair@$$CB_KUInternalRef@@@std@@@3@$0A@@std@@@std@@IEBAAEBU?$less@_K@2@XZ ; std::_Tree<std::_Tmap_traits<unsigned __int64,InternalRef,std::less<unsigned __int64>,std::allocator<std::pair<unsigned __int64 const ,InternalRef> >,0> >::_Getcomp
PUBLIC	?_Getal@?$_Tree@V?$_Tmap_traits@_KUInternalRef@@U?$less@_K@std@@V?$allocator@U?$pair@$$CB_KUInternalRef@@@std@@@3@$0A@@std@@@std@@IEAAAEAV?$allocator@U?$_Tree_node@U?$pair@$$CB_KUInternalRef@@@std@@PEAX@std@@@2@XZ ; std::_Tree<std::_Tmap_traits<unsigned __int64,InternalRef,std::less<unsigned __int64>,std::allocator<std::pair<unsigned __int64 const ,InternalRef> >,0> >::_Getal
PUBLIC	?_Getal@?$_Tree@V?$_Tmap_traits@_KUInternalRef@@U?$less@_K@std@@V?$allocator@U?$pair@$$CB_KUInternalRef@@@std@@@3@$0A@@std@@@std@@IEBAAEBV?$allocator@U?$_Tree_node@U?$pair@$$CB_KUInternalRef@@@std@@PEAX@std@@@2@XZ ; std::_Tree<std::_Tmap_traits<unsigned __int64,InternalRef,std::less<unsigned __int64>,std::allocator<std::pair<unsigned __int64 const ,InternalRef> >,0> >::_Getal
PUBLIC	?_Get_scary@?$_Tree@V?$_Tmap_traits@_KUInternalRef@@U?$less@_K@std@@V?$allocator@U?$pair@$$CB_KUInternalRef@@@std@@@3@$0A@@std@@@std@@IEAAPEAV?$_Tree_val@U?$_Tree_simple_types@U?$pair@$$CB_KUInternalRef@@@std@@@std@@@2@XZ ; std::_Tree<std::_Tmap_traits<unsigned __int64,InternalRef,std::less<unsigned __int64>,std::allocator<std::pair<unsigned __int64 const ,InternalRef> >,0> >::_Get_scary
PUBLIC	?_Get_scary@?$_Tree@V?$_Tmap_traits@_KUInternalRef@@U?$less@_K@std@@V?$allocator@U?$pair@$$CB_KUInternalRef@@@std@@@3@$0A@@std@@@std@@IEBAPEBV?$_Tree_val@U?$_Tree_simple_types@U?$pair@$$CB_KUInternalRef@@@std@@@std@@@2@XZ ; std::_Tree<std::_Tmap_traits<unsigned __int64,InternalRef,std::less<unsigned __int64>,std::allocator<std::pair<unsigned __int64 const ,InternalRef> >,0> >::_Get_scary
PUBLIC	??R?$less@_K@std@@QEBA_NAEB_K0@Z		; std::less<unsigned __int64>::operator()
PUBLIC	??0?$_Tree_val@U?$_Tree_simple_types@U?$pair@$$CB_KUInternalRef@@@std@@@std@@@std@@QEAA@XZ ; std::_Tree_val<std::_Tree_simple_types<std::pair<unsigned __int64 const ,InternalRef> > >::_Tree_val<std::_Tree_simple_types<std::pair<unsigned __int64 const ,InternalRef> > >
PUBLIC	?_Lrotate@?$_Tree_val@U?$_Tree_simple_types@U?$pair@$$CB_KUInternalRef@@@std@@@std@@@std@@QEAAXPEAU?$_Tree_node@U?$pair@$$CB_KUInternalRef@@@std@@PEAX@2@@Z ; std::_Tree_val<std::_Tree_simple_types<std::pair<unsigned __int64 const ,InternalRef> > >::_Lrotate
PUBLIC	?_Rrotate@?$_Tree_val@U?$_Tree_simple_types@U?$pair@$$CB_KUInternalRef@@@std@@@std@@@std@@QEAAXPEAU?$_Tree_node@U?$pair@$$CB_KUInternalRef@@@std@@PEAX@2@@Z ; std::_Tree_val<std::_Tree_simple_types<std::pair<unsigned __int64 const ,InternalRef> > >::_Rrotate
PUBLIC	?_Insert_node@?$_Tree_val@U?$_Tree_simple_types@U?$pair@$$CB_KUInternalRef@@@std@@@std@@@std@@QEAAPEAU?$_Tree_node@U?$pair@$$CB_KUInternalRef@@@std@@PEAX@2@U?$_Tree_id@PEAU?$_Tree_node@U?$pair@$$CB_KUInternalRef@@@std@@PEAX@std@@@2@QEAU32@@Z ; std::_Tree_val<std::_Tree_simple_types<std::pair<unsigned __int64 const ,InternalRef> > >::_Insert_node
PUBLIC	?_Get_first@?$_Compressed_pair@V?$allocator@U?$_Tree_node@U?$pair@$$CB_KUInternalRef@@@std@@PEAX@std@@@std@@V?$_Tree_val@U?$_Tree_simple_types@U?$pair@$$CB_KUInternalRef@@@std@@@std@@@2@$00@std@@QEAAAEAV?$allocator@U?$_Tree_node@U?$pair@$$CB_KUInternalRef@@@std@@PEAX@std@@@2@XZ ; std::_Compressed_pair<std::allocator<std::_Tree_node<std::pair<unsigned __int64 const ,InternalRef>,void *> >,std::_Tree_val<std::_Tree_simple_types<std::pair<unsigned __int64 const ,InternalRef> > >,1>::_Get_first
PUBLIC	?_Get_first@?$_Compressed_pair@V?$allocator@U?$_Tree_node@U?$pair@$$CB_KUInternalRef@@@std@@PEAX@std@@@std@@V?$_Tree_val@U?$_Tree_simple_types@U?$pair@$$CB_KUInternalRef@@@std@@@std@@@2@$00@std@@QEBAAEBV?$allocator@U?$_Tree_node@U?$pair@$$CB_KUInternalRef@@@std@@PEAX@std@@@2@XZ ; std::_Compressed_pair<std::allocator<std::_Tree_node<std::pair<unsigned __int64 const ,InternalRef>,void *> >,std::_Tree_val<std::_Tree_simple_types<std::pair<unsigned __int64 const ,InternalRef> > >,1>::_Get_first
PUBLIC	?_Get_first@?$_Compressed_pair@U?$less@_K@std@@V?$_Compressed_pair@V?$allocator@U?$_Tree_node@U?$pair@$$CB_KUInternalRef@@@std@@PEAX@std@@@std@@V?$_Tree_val@U?$_Tree_simple_types@U?$pair@$$CB_KUInternalRef@@@std@@@std@@@2@$00@2@$00@std@@QEBAAEBU?$less@_K@2@XZ ; std::_Compressed_pair<std::less<unsigned __int64>,std::_Compressed_pair<std::allocator<std::_Tree_node<std::pair<unsigned __int64 const ,InternalRef>,void *> >,std::_Tree_val<std::_Tree_simple_types<std::pair<unsigned __int64 const ,InternalRef> > >,1>,1>::_Get_first
PUBLIC	??0?$map@_KUInternalRef@@U?$less@_K@std@@V?$allocator@U?$pair@$$CB_KUInternalRef@@@std@@@3@@std@@QEAA@XZ ; std::map<unsigned __int64,InternalRef,std::less<unsigned __int64>,std::allocator<std::pair<unsigned __int64 const ,InternalRef> > >::map<unsigned __int64,InternalRef,std::less<unsigned __int64>,std::allocator<std::pair<unsigned __int64 const ,InternalRef> > >
PUBLIC	??A?$map@_KUInternalRef@@U?$less@_K@std@@V?$allocator@U?$pair@$$CB_KUInternalRef@@@std@@@3@@std@@QEAAAEAUInternalRef@@AEB_K@Z ; std::map<unsigned __int64,InternalRef,std::less<unsigned __int64>,std::allocator<std::pair<unsigned __int64 const ,InternalRef> > >::operator[]
PUBLIC	??1?$map@_KUInternalRef@@U?$less@_K@std@@V?$allocator@U?$pair@$$CB_KUInternalRef@@@std@@@3@@std@@QEAA@XZ ; std::map<unsigned __int64,InternalRef,std::less<unsigned __int64>,std::allocator<std::pair<unsigned __int64 const ,InternalRef> > >::~map<unsigned __int64,InternalRef,std::less<unsigned __int64>,std::allocator<std::pair<unsigned __int64 const ,InternalRef> > >
PUBLIC	?clear@?$basic_ios@DU?$char_traits@D@std@@@std@@QEAAXH_N@Z ; std::basic_ios<char,std::char_traits<char> >::clear
PUBLIC	?setstate@?$basic_ios@DU?$char_traits@D@std@@@std@@QEAAXH_N@Z ; std::basic_ios<char,std::char_traits<char> >::setstate
PUBLIC	?tie@?$basic_ios@DU?$char_traits@D@std@@@std@@QEBAPEAV?$basic_ostream@DU?$char_traits@D@std@@@2@XZ ; std::basic_ios<char,std::char_traits<char> >::tie
PUBLIC	?rdbuf@?$basic_ios@DU?$char_traits@D@std@@@std@@QEBAPEAV?$basic_streambuf@DU?$char_traits@D@std@@@2@XZ ; std::basic_ios<char,std::char_traits<char> >::rdbuf
PUBLIC	?fill@?$basic_ios@DU?$char_traits@D@std@@@std@@QEBADXZ ; std::basic_ios<char,std::char_traits<char> >::fill
PUBLIC	?widen@?$basic_ios@DU?$char_traits@D@std@@@std@@QEBADD@Z ; std::basic_ios<char,std::char_traits<char> >::widen
PUBLIC	?_Osfx@?$basic_ostream@DU?$char_traits@D@std@@@std@@QEAAXXZ ; std::basic_ostream<char,std::char_traits<char> >::_Osfx
PUBLIC	??6?$basic_ostream@DU?$char_traits@D@std@@@std@@QEAAAEAV01@P6AAEAV01@AEAV01@@Z@Z ; std::basic_ostream<char,std::char_traits<char> >::operator<<
PUBLIC	?put@?$basic_ostream@DU?$char_traits@D@std@@@std@@QEAAAEAV12@D@Z ; std::basic_ostream<char,std::char_traits<char> >::put
PUBLIC	?flush@?$basic_ostream@DU?$char_traits@D@std@@@std@@QEAAAEAV12@XZ ; std::basic_ostream<char,std::char_traits<char> >::flush
PUBLIC	??$?6U?$char_traits@D@std@@@std@@YAAEAV?$basic_ostream@DU?$char_traits@D@std@@@0@AEAV10@PEBD@Z ; std::operator<<<std::char_traits<char> >
PUBLIC	??$endl@DU?$char_traits@D@std@@@std@@YAAEAV?$basic_ostream@DU?$char_traits@D@std@@@0@AEAV10@@Z ; std::endl<char,std::char_traits<char> >
PUBLIC	??0Student@@QEAA@XZ				; Student::Student
PUBLIC	??1Student@@QEAA@XZ				; Student::~Student
PUBLIC	??_GStudent@@QEAAPEAXI@Z			; Student::`scalar deleting destructor'
PUBLIC	main
PUBLIC	??$New@UStudent@@$$V@Allocator@@SA?AV?$Ref@UStudent@@@@XZ ; Allocator::New<Student>
PUBLIC	??0?$Ref@UStudent@@@@QEAA@XZ			; Ref<Student>::Ref<Student>
PUBLIC	??1?$Ref@UStudent@@@@UEAA@XZ			; Ref<Student>::~Ref<Student>
PUBLIC	?Finalize@?$Ref@UStudent@@@@UEAAXXZ		; Ref<Student>::Finalize
PUBLIC	?Get@?$Ref@UStudent@@@@QEBAPEAUStudent@@XZ	; Ref<Student>::Get
PUBLIC	??C?$Ref@UStudent@@@@QEBAPEAUStudent@@XZ	; Ref<Student>::operator->
PUBLIC	??0?$Ref@UStudent@@@@QEAA@AEBV0@@Z		; Ref<Student>::Ref<Student>
PUBLIC	??_G?$Ref@UStudent@@@@UEAAPEAXI@Z		; Ref<Student>::`scalar deleting destructor'
PUBLIC	??$_Try_emplace@AEB_K$$V@?$map@_KUInternalRef@@U?$less@_K@std@@V?$allocator@U?$pair@$$CB_KUInternalRef@@@std@@@3@@std@@AEAA?AU?$pair@PEAU?$_Tree_node@U?$pair@$$CB_KUInternalRef@@@std@@PEAX@std@@_N@1@AEB_K@Z ; std::map<unsigned __int64,InternalRef,std::less<unsigned __int64>,std::allocator<std::pair<unsigned __int64 const ,InternalRef> > >::_Try_emplace<unsigned __int64 const &>
PUBLIC	??$_Erase_head@V?$allocator@U?$_Tree_node@U?$pair@$$CB_KUInternalRef@@@std@@PEAX@std@@@std@@@?$_Tree_val@U?$_Tree_simple_types@U?$pair@$$CB_KUInternalRef@@@std@@@std@@@std@@QEAAXAEAV?$allocator@U?$_Tree_node@U?$pair@$$CB_KUInternalRef@@@std@@PEAX@std@@@1@@Z ; std::_Tree_val<std::_Tree_simple_types<std::pair<unsigned __int64 const ,InternalRef> > >::_Erase_head<std::allocator<std::_Tree_node<std::pair<unsigned __int64 const ,InternalRef>,void *> > >
PUBLIC	?allocate@?$allocator@U_Container_proxy@std@@@std@@QEAAPEAU_Container_proxy@2@_K@Z ; std::allocator<std::_Container_proxy>::allocate
PUBLIC	??$?0U?$_Tree_node@U?$pair@$$CB_KUInternalRef@@@std@@PEAX@std@@@?$allocator@U_Container_proxy@std@@@std@@QEAA@AEBV?$allocator@U?$_Tree_node@U?$pair@$$CB_KUInternalRef@@@std@@PEAX@std@@@1@@Z ; std::allocator<std::_Container_proxy>::allocator<std::_Container_proxy><std::_Tree_node<std::pair<unsigned __int64 const ,InternalRef>,void *> >
PUBLIC	??$_Delete_plain_internal@V?$allocator@U_Container_proxy@std@@@std@@@std@@YAXAEAV?$allocator@U_Container_proxy@std@@@0@QEAU_Container_proxy@0@@Z ; std::_Delete_plain_internal<std::allocator<std::_Container_proxy> >
PUBLIC	??0?$_Container_proxy_ptr12@V?$allocator@U_Container_proxy@std@@@std@@@std@@QEAA@AEAV?$allocator@U_Container_proxy@std@@@1@AEAU_Container_base12@1@@Z ; std::_Container_proxy_ptr12<std::allocator<std::_Container_proxy> >::_Container_proxy_ptr12<std::allocator<std::_Container_proxy> >
PUBLIC	??1?$_Container_proxy_ptr12@V?$allocator@U_Container_proxy@std@@@std@@@std@@QEAA@XZ ; std::_Container_proxy_ptr12<std::allocator<std::_Container_proxy> >::~_Container_proxy_ptr12<std::allocator<std::_Container_proxy> >
PUBLIC	??$?0D@?$allocator@U_Container_proxy@std@@@std@@QEAA@AEBV?$allocator@D@1@@Z ; std::allocator<std::_Container_proxy>::allocator<std::_Container_proxy><char>
PUBLIC	??$move@AEAV?$allocator@D@std@@@std@@YA$$QEAV?$allocator@D@0@AEAV10@@Z ; std::move<std::allocator<char> &>
PUBLIC	??$?0V?$allocator@D@std@@$$V@?$_Compressed_pair@V?$allocator@D@std@@V?$_String_val@U?$_Simple_types@D@std@@@2@$00@std@@QEAA@U_One_then_variadic_args_t@1@$$QEAV?$allocator@D@1@@Z ; std::_Compressed_pair<std::allocator<char>,std::_String_val<std::_Simple_types<char> >,1>::_Compressed_pair<std::allocator<char>,std::_String_val<std::_Simple_types<char> >,1><std::allocator<char> >
PUBLIC	??$_Alloc_proxy@V?$allocator@U_Container_proxy@std@@@std@@@_Container_base12@std@@QEAAX$$QEAV?$allocator@U_Container_proxy@std@@@1@@Z ; std::_Container_base12::_Alloc_proxy<std::allocator<std::_Container_proxy> >
PUBLIC	??$?0$$V@?$_Compressed_pair@V?$allocator@D@std@@V?$_String_val@U?$_Simple_types@D@std@@@2@$00@std@@QEAA@U_Zero_then_variadic_args_t@1@@Z ; std::_Compressed_pair<std::allocator<char>,std::_String_val<std::_Simple_types<char> >,1>::_Compressed_pair<std::allocator<char>,std::_String_val<std::_Simple_types<char> >,1><>
PUBLIC	??$_Unfancy@U_Container_proxy@std@@@std@@YAPEAU_Container_proxy@0@PEAU10@@Z ; std::_Unfancy<std::_Container_proxy>
PUBLIC	??$addressof@U_Container_base12@std@@@std@@YAPEAU_Container_base12@0@AEAU10@@Z ; std::addressof<std::_Container_base12>
PUBLIC	??$_Construct_in_place@U_Container_proxy@std@@PEAU_Container_base12@2@@std@@YAXAEAU_Container_proxy@0@$$QEAPEAU_Container_base12@0@@Z ; std::_Construct_in_place<std::_Container_proxy,std::_Container_base12 *>
PUBLIC	??$addressof@V?$_Tree_val@U?$_Tree_simple_types@U?$pair@$$CB_KUInternalRef@@@std@@@std@@@std@@@std@@YAPEAV?$_Tree_val@U?$_Tree_simple_types@U?$pair@$$CB_KUInternalRef@@@std@@@std@@@0@AEAV10@@Z ; std::addressof<std::_Tree_val<std::_Tree_simple_types<std::pair<unsigned __int64 const ,InternalRef> > > >
PUBLIC	??$?0AEBU?$less@_K@std@@U_Zero_then_variadic_args_t@1@@?$_Compressed_pair@U?$less@_K@std@@V?$_Compressed_pair@V?$allocator@U?$_Tree_node@U?$pair@$$CB_KUInternalRef@@@std@@PEAX@std@@@std@@V?$_Tree_val@U?$_Tree_simple_types@U?$pair@$$CB_KUInternalRef@@@std@@@std@@@2@$00@2@$00@std@@QEAA@U_One_then_variadic_args_t@1@AEBU?$less@_K@1@$$QEAU_Zero_then_variadic_args_t@1@@Z ; std::_Compressed_pair<std::less<unsigned __int64>,std::_Compressed_pair<std::allocator<std::_Tree_node<std::pair<unsigned __int64 const ,InternalRef>,void *> >,std::_Tree_val<std::_Tree_simple_types<std::pair<unsigned __int64 const ,InternalRef> > >,1>,1>::_Compressed_pair<std::less<unsigned __int64>,std::_Compressed_pair<std::allocator<std::_Tree_node<std::pair<unsigned __int64 const ,InternalRef>,void *> >,std::_Tree_val<std::_Tree_simple_types<std::pair<unsigned __int64 const ,InternalRef> > >,1>,1><std::less<unsigned __int64> const &,std::_Zero_then_variadic_args_t>
PUBLIC	??$?0$$V@?$_Compressed_pair@V?$allocator@U?$_Tree_node@U?$pair@$$CB_KUInternalRef@@@std@@PEAX@std@@@std@@V?$_Tree_val@U?$_Tree_simple_types@U?$pair@$$CB_KUInternalRef@@@std@@@std@@@2@$00@std@@QEAA@U_Zero_then_variadic_args_t@1@@Z ; std::_Compressed_pair<std::allocator<std::_Tree_node<std::pair<unsigned __int64 const ,InternalRef>,void *> >,std::_Tree_val<std::_Tree_simple_types<std::pair<unsigned __int64 const ,InternalRef> > >,1>::_Compressed_pair<std::allocator<std::_Tree_node<std::pair<unsigned __int64 const ,InternalRef>,void *> >,std::_Tree_val<std::_Tree_simple_types<std::pair<unsigned __int64 const ,InternalRef> > >,1><>
PUBLIC	??$_Destroy_in_place@PEAD@std@@YAXAEAPEAD@Z	; std::_Destroy_in_place<char *>
PUBLIC	??R<lambda_66f57f934f28d61049862f64df852ff0>@@QEBAXQEAD_KQEBD@Z ; <lambda_66f57f934f28d61049862f64df852ff0>::operator()
PUBLIC	??$_Reallocate_for@V<lambda_66f57f934f28d61049862f64df852ff0>@@PEBD@?$basic_string@DU?$char_traits@D@std@@V?$allocator@D@2@@std@@AEAAAEAV01@_KV<lambda_66f57f934f28d61049862f64df852ff0>@@PEBD@Z ; std::basic_string<char,std::char_traits<char>,std::allocator<char> >::_Reallocate_for<<lambda_66f57f934f28d61049862f64df852ff0>,char const *>
PUBLIC	??R<lambda_65e615be2a453ca0576c979606f46740>@@QEBAXQEADQEBD_K12@Z ; <lambda_65e615be2a453ca0576c979606f46740>::operator()
PUBLIC	??$_Reallocate_grow_by@V<lambda_65e615be2a453ca0576c979606f46740>@@PEBD_K@?$basic_string@DU?$char_traits@D@std@@V?$allocator@D@2@@std@@AEAAAEAV01@_KV<lambda_65e615be2a453ca0576c979606f46740>@@PEBD_K@Z ; std::basic_string<char,std::char_traits<char>,std::allocator<char> >::_Reallocate_grow_by<<lambda_65e615be2a453ca0576c979606f46740>,char const *,unsigned __int64>
PUBLIC	??$min@_K@std@@YAAEB_KAEB_K0@Z			; std::min<unsigned __int64>
PUBLIC	??$_Construct_in_place@PEADAEBQEAD@std@@YAXAEAPEADAEBQEAD@Z ; std::_Construct_in_place<char *,char * const &>
PUBLIC	??$_Unfancy@D@std@@YAPEADPEAD@Z			; std::_Unfancy<char>
PUBLIC	??$max@_K@std@@YAAEB_KAEB_K0@Z			; std::max<unsigned __int64>
PUBLIC	??$_Get_size_of_n@$0BA@@std@@YA_K_K@Z		; std::_Get_size_of_n<16>
PUBLIC	??$_Allocate@$0BA@U_Default_allocate_traits@std@@$0A@@std@@YAPEAX_K@Z ; std::_Allocate<16,std::_Default_allocate_traits,0>
PUBLIC	??$_Buyheadnode@V?$allocator@U?$_Tree_node@U?$pair@$$CB_KUInternalRef@@@std@@PEAX@std@@@std@@@?$_Tree_node@U?$pair@$$CB_KUInternalRef@@@std@@PEAX@std@@SAPEAU01@AEAV?$allocator@U?$_Tree_node@U?$pair@$$CB_KUInternalRef@@@std@@PEAX@std@@@1@@Z ; std::_Tree_node<std::pair<unsigned __int64 const ,InternalRef>,void *>::_Buyheadnode<std::allocator<std::_Tree_node<std::pair<unsigned __int64 const ,InternalRef>,void *> > >
PUBLIC	??$_Deallocate@$0BA@$0A@@std@@YAXPEAX_K@Z	; std::_Deallocate<16,0>
PUBLIC	??$addressof@V?$_String_val@U?$_Simple_types@D@std@@@std@@@std@@YAPEAV?$_String_val@U?$_Simple_types@D@std@@@0@AEAV10@@Z ; std::addressof<std::_String_val<std::_Simple_types<char> > >
PUBLIC	??$addressof@$$CBV?$_String_val@U?$_Simple_types@D@std@@@std@@@std@@YAPEBV?$_String_val@U?$_Simple_types@D@std@@@0@AEBV10@@Z ; std::addressof<std::_String_val<std::_Simple_types<char> > const >
PUBLIC	??$_Get_size_of_n@$00@std@@YA_K_K@Z		; std::_Get_size_of_n<1>
PUBLIC	?store@?$_Atomic_storage@_K$07@std@@QEAAX_K@Z	; std::_Atomic_storage<unsigned __int64,8>::store
PUBLIC	?store@?$_Atomic_storage@_K$07@std@@QEAAX_KW4memory_order@2@@Z ; std::_Atomic_storage<unsigned __int64,8>::store
PUBLIC	?load@?$_Atomic_storage@_K$07@std@@QEBA_KW4memory_order@2@@Z ; std::_Atomic_storage<unsigned __int64,8>::load
PUBLIC	??$addressof@$$CBV_Iostream_error_category2@std@@@std@@YAPEBV_Iostream_error_category2@0@AEBV10@@Z ; std::addressof<std::_Iostream_error_category2 const >
PUBLIC	??$_Verify_range@D@std@@YAXQEBD0@Z		; std::_Verify_range<char>
PUBLIC	??R?$default_delete@V_Facet_base@std@@@std@@QEBAXPEAV_Facet_base@1@@Z ; std::default_delete<std::_Facet_base>::operator()
PUBLIC	??1?$unique_ptr@V_Facet_base@std@@U?$default_delete@V_Facet_base@std@@@2@@std@@QEAA@XZ ; std::unique_ptr<std::_Facet_base,std::default_delete<std::_Facet_base> >::~unique_ptr<std::_Facet_base,std::default_delete<std::_Facet_base> >
PUBLIC	?release@?$unique_ptr@V_Facet_base@std@@U?$default_delete@V_Facet_base@std@@@2@@std@@QEAAPEAV_Facet_base@2@XZ ; std::unique_ptr<std::_Facet_base,std::default_delete<std::_Facet_base> >::release
PUBLIC	?_Get_first@?$_Compressed_pair@U?$default_delete@V_Facet_base@std@@@std@@PEAV_Facet_base@2@$00@std@@QEAAAEAU?$default_delete@V_Facet_base@std@@@2@XZ ; std::_Compressed_pair<std::default_delete<std::_Facet_base>,std::_Facet_base *,1>::_Get_first
PUBLIC	??$?0U?$default_delete@V_Facet_base@std@@@std@@$0A@@?$unique_ptr@V_Facet_base@std@@U?$default_delete@V_Facet_base@std@@@2@@std@@QEAA@PEAV_Facet_base@1@@Z ; std::unique_ptr<std::_Facet_base,std::default_delete<std::_Facet_base> >::unique_ptr<std::_Facet_base,std::default_delete<std::_Facet_base> ><std::default_delete<std::_Facet_base>,0>
PUBLIC	??0_Sentry_base@?$basic_ostream@DU?$char_traits@D@std@@@std@@QEAA@AEAV12@@Z ; std::basic_ostream<char,std::char_traits<char> >::_Sentry_base::_Sentry_base
PUBLIC	??1_Sentry_base@?$basic_ostream@DU?$char_traits@D@std@@@std@@QEAA@XZ ; std::basic_ostream<char,std::char_traits<char> >::_Sentry_base::~_Sentry_base
PUBLIC	??0sentry@?$basic_ostream@DU?$char_traits@D@std@@@std@@QEAA@AEAV12@@Z ; std::basic_ostream<char,std::char_traits<char> >::sentry::sentry
PUBLIC	??1sentry@?$basic_ostream@DU?$char_traits@D@std@@@std@@QEAA@XZ ; std::basic_ostream<char,std::char_traits<char> >::sentry::~sentry
PUBLIC	??Bsentry@?$basic_ostream@DU?$char_traits@D@std@@@std@@QEBA_NXZ ; std::basic_ostream<char,std::char_traits<char> >::sentry::operator bool
PUBLIC	?pubsync@?$basic_streambuf@DU?$char_traits@D@std@@@std@@QEAAHXZ ; std::basic_streambuf<char,std::char_traits<char> >::pubsync
PUBLIC	?sputc@?$basic_streambuf@DU?$char_traits@D@std@@@std@@QEAAHD@Z ; std::basic_streambuf<char,std::char_traits<char> >::sputc
PUBLIC	?sputn@?$basic_streambuf@DU?$char_traits@D@std@@@std@@QEAA_JPEBD_J@Z ; std::basic_streambuf<char,std::char_traits<char> >::sputn
PUBLIC	?_Pninc@?$basic_streambuf@DU?$char_traits@D@std@@@std@@IEAAPEADXZ ; std::basic_streambuf<char,std::char_traits<char> >::_Pninc
PUBLIC	?_Pnavail@?$basic_streambuf@DU?$char_traits@D@std@@@std@@IEBA_JXZ ; std::basic_streambuf<char,std::char_traits<char> >::_Pnavail
PUBLIC	??$_Find_lower_bound@_K@?$_Tree@V?$_Tmap_traits@_KUInternalRef@@U?$less@_K@std@@V?$allocator@U?$pair@$$CB_KUInternalRef@@@std@@@3@$0A@@std@@@std@@IEBA?AU?$_Tree_find_result@PEAU?$_Tree_node@U?$pair@$$CB_KUInternalRef@@@std@@PEAX@std@@@1@AEB_K@Z ; std::_Tree<std::_Tmap_traits<unsigned __int64,InternalRef,std::less<unsigned __int64>,std::allocator<std::pair<unsigned __int64 const ,InternalRef> >,0> >::_Find_lower_bound<unsigned __int64>
PUBLIC	??$_Lower_bound_duplicate@_K@?$_Tree@V?$_Tmap_traits@_KUInternalRef@@U?$less@_K@std@@V?$allocator@U?$pair@$$CB_KUInternalRef@@@std@@@3@$0A@@std@@@std@@IEBA_NQEAU?$_Tree_node@U?$pair@$$CB_KUInternalRef@@@std@@PEAX@1@AEB_K@Z ; std::_Tree<std::_Tmap_traits<unsigned __int64,InternalRef,std::less<unsigned __int64>,std::allocator<std::pair<unsigned __int64 const ,InternalRef> >,0> >::_Lower_bound_duplicate<unsigned __int64>
PUBLIC	??$?0AEBQEAU?$_Tree_node@U?$pair@$$CB_KUInternalRef@@@std@@PEAX@std@@_N$0A@@?$pair@PEAU?$_Tree_node@U?$pair@$$CB_KUInternalRef@@@std@@PEAX@std@@_N@std@@QEAA@AEBQEAU?$_Tree_node@U?$pair@$$CB_KUInternalRef@@@std@@PEAX@1@$$QEA_N@Z ; std::pair<std::_Tree_node<std::pair<unsigned __int64 const ,InternalRef>,void *> *,bool>::pair<std::_Tree_node<std::pair<unsigned __int64 const ,InternalRef>,void *> *,bool><std::_Tree_node<std::pair<unsigned __int64 const ,InternalRef>,void *> * const &,bool,0>
PUBLIC	??$forward@AEB_K@std@@YAAEB_KAEB_K@Z		; std::forward<unsigned __int64 const &>
PUBLIC	??$forward_as_tuple@AEB_K@std@@YA?AV?$tuple@AEB_K@0@AEB_K@Z ; std::forward_as_tuple<unsigned __int64 const &>
PUBLIC	??0?$tuple@AEB_K@std@@QEAA@$$QEAV01@@Z		; std::tuple<unsigned __int64 const &>::tuple<unsigned __int64 const &>
PUBLIC	??$forward_as_tuple@$$V@std@@YA?AV?$tuple@$$V@0@XZ ; std::forward_as_tuple<>
PUBLIC	??0?$_Alloc_construct_ptr@V?$allocator@U?$_Tree_node@U?$pair@$$CB_KUInternalRef@@@std@@PEAX@std@@@std@@@std@@QEAA@AEAV?$allocator@U?$_Tree_node@U?$pair@$$CB_KUInternalRef@@@std@@PEAX@std@@@1@@Z ; std::_Alloc_construct_ptr<std::allocator<std::_Tree_node<std::pair<unsigned __int64 const ,InternalRef>,void *> > >::_Alloc_construct_ptr<std::allocator<std::_Tree_node<std::pair<unsigned __int64 const ,InternalRef>,void *> > >
PUBLIC	?_Release@?$_Alloc_construct_ptr@V?$allocator@U?$_Tree_node@U?$pair@$$CB_KUInternalRef@@@std@@PEAX@std@@@std@@@std@@QEAAPEAU?$_Tree_node@U?$pair@$$CB_KUInternalRef@@@std@@PEAX@2@XZ ; std::_Alloc_construct_ptr<std::allocator<std::_Tree_node<std::pair<unsigned __int64 const ,InternalRef>,void *> > >::_Release
PUBLIC	?_Allocate@?$_Alloc_construct_ptr@V?$allocator@U?$_Tree_node@U?$pair@$$CB_KUInternalRef@@@std@@PEAX@std@@@std@@@std@@QEAAXXZ ; std::_Alloc_construct_ptr<std::allocator<std::_Tree_node<std::pair<unsigned __int64 const ,InternalRef>,void *> > >::_Allocate
PUBLIC	??1?$_Alloc_construct_ptr@V?$allocator@U?$_Tree_node@U?$pair@$$CB_KUInternalRef@@@std@@PEAX@std@@@std@@@std@@QEAA@XZ ; std::_Alloc_construct_ptr<std::allocator<std::_Tree_node<std::pair<unsigned __int64 const ,InternalRef>,void *> > >::~_Alloc_construct_ptr<std::allocator<std::_Tree_node<std::pair<unsigned __int64 const ,InternalRef>,void *> > >
PUBLIC	??0?$_Tree_temp_node_alloc@V?$allocator@U?$_Tree_node@U?$pair@$$CB_KUInternalRef@@@std@@PEAX@std@@@std@@@std@@QEAA@AEAV?$allocator@U?$_Tree_node@U?$pair@$$CB_KUInternalRef@@@std@@PEAX@std@@@1@@Z ; std::_Tree_temp_node_alloc<std::allocator<std::_Tree_node<std::pair<unsigned __int64 const ,InternalRef>,void *> > >::_Tree_temp_node_alloc<std::allocator<std::_Tree_node<std::pair<unsigned __int64 const ,InternalRef>,void *> > >
PUBLIC	??1?$_Tree_temp_node_alloc@V?$allocator@U?$_Tree_node@U?$pair@$$CB_KUInternalRef@@@std@@PEAX@std@@@std@@@std@@QEAA@XZ ; std::_Tree_temp_node_alloc<std::allocator<std::_Tree_node<std::pair<unsigned __int64 const ,InternalRef>,void *> > >::~_Tree_temp_node_alloc<std::allocator<std::_Tree_node<std::pair<unsigned __int64 const ,InternalRef>,void *> > >
PUBLIC	??1?$_Tree_temp_node@V?$allocator@U?$_Tree_node@U?$pair@$$CB_KUInternalRef@@@std@@PEAX@std@@@std@@@std@@QEAA@XZ ; std::_Tree_temp_node<std::allocator<std::_Tree_node<std::pair<unsigned __int64 const ,InternalRef>,void *> > >::~_Tree_temp_node<std::allocator<std::_Tree_node<std::pair<unsigned __int64 const ,InternalRef>,void *> > >
PUBLIC	??$?0AEBUpiecewise_construct_t@std@@V?$tuple@AEB_K@1@V?$tuple@$$V@1@@?$_Tree_temp_node@V?$allocator@U?$_Tree_node@U?$pair@$$CB_KUInternalRef@@@std@@PEAX@std@@@std@@@std@@QEAA@AEAV?$allocator@U?$_Tree_node@U?$pair@$$CB_KUInternalRef@@@std@@PEAX@std@@@1@PEAU?$_Tree_node@U?$pair@$$CB_KUInternalRef@@@std@@PEAX@1@AEBUpiecewise_construct_t@1@$$QEAV?$tuple@AEB_K@1@$$QEAV?$tuple@$$V@1@@Z ; std::_Tree_temp_node<std::allocator<std::_Tree_node<std::pair<unsigned __int64 const ,InternalRef>,void *> > >::_Tree_temp_node<std::allocator<std::_Tree_node<std::pair<unsigned __int64 const ,InternalRef>,void *> > ><std::piecewise_construct_t const &,std::tuple<unsigned __int64 const &>,std::tuple<> >
PUBLIC	??$?0PEAU?$_Tree_node@U?$pair@$$CB_KUInternalRef@@@std@@PEAX@std@@_N$0A@@?$pair@PEAU?$_Tree_node@U?$pair@$$CB_KUInternalRef@@@std@@PEAX@std@@_N@std@@QEAA@$$QEAPEAU?$_Tree_node@U?$pair@$$CB_KUInternalRef@@@std@@PEAX@1@$$QEA_N@Z ; std::pair<std::_Tree_node<std::pair<unsigned __int64 const ,InternalRef>,void *> *,bool>::pair<std::_Tree_node<std::pair<unsigned __int64 const ,InternalRef>,void *> *,bool><std::_Tree_node<std::pair<unsigned __int64 const ,InternalRef>,void *> *,bool,0>
PUBLIC	??$_Erase_tree@V?$allocator@U?$_Tree_node@U?$pair@$$CB_KUInternalRef@@@std@@PEAX@std@@@std@@@?$_Tree_val@U?$_Tree_simple_types@U?$pair@$$CB_KUInternalRef@@@std@@@std@@@std@@QEAAXAEAV?$allocator@U?$_Tree_node@U?$pair@$$CB_KUInternalRef@@@std@@PEAX@std@@@1@PEAU?$_Tree_node@U?$pair@$$CB_KUInternalRef@@@std@@PEAX@1@@Z ; std::_Tree_val<std::_Tree_simple_types<std::pair<unsigned __int64 const ,InternalRef> > >::_Erase_tree<std::allocator<std::_Tree_node<std::pair<unsigned __int64 const ,InternalRef>,void *> > >
PUBLIC	??$_Freenode0@V?$allocator@U?$_Tree_node@U?$pair@$$CB_KUInternalRef@@@std@@PEAX@std@@@std@@@?$_Tree_node@U?$pair@$$CB_KUInternalRef@@@std@@PEAX@std@@SAXAEAV?$allocator@U?$_Tree_node@U?$pair@$$CB_KUInternalRef@@@std@@PEAX@std@@@1@PEAU01@@Z ; std::_Tree_node<std::pair<unsigned __int64 const ,InternalRef>,void *>::_Freenode0<std::allocator<std::_Tree_node<std::pair<unsigned __int64 const ,InternalRef>,void *> > >
PUBLIC	??$_Deallocate_plain@V?$allocator@U_Container_proxy@std@@@std@@@std@@YAXAEAV?$allocator@U_Container_proxy@std@@@0@QEAU_Container_proxy@0@@Z ; std::_Deallocate_plain<std::allocator<std::_Container_proxy> >
PUBLIC	??$forward@V?$allocator@D@std@@@std@@YA$$QEAV?$allocator@D@0@AEAV10@@Z ; std::forward<std::allocator<char> >
PUBLIC	??$addressof@U_Container_proxy@std@@@std@@YAPEAU_Container_proxy@0@AEAU10@@Z ; std::addressof<std::_Container_proxy>
PUBLIC	??$forward@PEAU_Container_base12@std@@@std@@YA$$QEAPEAU_Container_base12@0@AEAPEAU10@@Z ; std::forward<std::_Container_base12 *>
PUBLIC	??$forward@AEBU?$less@_K@std@@@std@@YAAEBU?$less@_K@0@AEBU10@@Z ; std::forward<std::less<unsigned __int64> const &>
PUBLIC	??$forward@U_Zero_then_variadic_args_t@std@@@std@@YA$$QEAU_Zero_then_variadic_args_t@0@AEAU10@@Z ; std::forward<std::_Zero_then_variadic_args_t>
PUBLIC	??$addressof@PEAD@std@@YAPEAPEADAEAPEAD@Z	; std::addressof<char *>
PUBLIC	??$forward@AEBQEAD@std@@YAAEBQEADAEBQEAD@Z	; std::forward<char * const &>
PUBLIC	??$_Allocate_manually_vector_aligned@U_Default_allocate_traits@std@@@std@@YAPEAX_K@Z ; std::_Allocate_manually_vector_aligned<std::_Default_allocate_traits>
PUBLIC	??$_Construct_in_place@PEAU?$_Tree_node@U?$pair@$$CB_KUInternalRef@@@std@@PEAX@std@@AEBQEAU12@@std@@YAXAEAPEAU?$_Tree_node@U?$pair@$$CB_KUInternalRef@@@std@@PEAX@0@AEBQEAU10@@Z ; std::_Construct_in_place<std::_Tree_node<std::pair<unsigned __int64 const ,InternalRef>,void *> *,std::_Tree_node<std::pair<unsigned __int64 const ,InternalRef>,void *> * const &>
PUBLIC	??$_Destroy_in_place@PEAU?$_Tree_node@U?$pair@$$CB_KUInternalRef@@@std@@PEAX@std@@@std@@YAXAEAPEAU?$_Tree_node@U?$pair@$$CB_KUInternalRef@@@std@@PEAX@0@@Z ; std::_Destroy_in_place<std::_Tree_node<std::pair<unsigned __int64 const ,InternalRef>,void *> *>
PUBLIC	??$addressof@U?$pair@$$CB_KUInternalRef@@@std@@@std@@YAPEAU?$pair@$$CB_KUInternalRef@@@0@AEAU10@@Z ; std::addressof<std::pair<unsigned __int64 const ,InternalRef> >
PUBLIC	??$destroy@U?$pair@$$CB_KUInternalRef@@@std@@@?$_Default_allocator_traits@V?$allocator@U?$_Tree_node@U?$pair@$$CB_KUInternalRef@@@std@@PEAX@std@@@std@@@std@@SAXAEAV?$allocator@U?$_Tree_node@U?$pair@$$CB_KUInternalRef@@@std@@PEAX@std@@@1@QEAU?$pair@$$CB_KUInternalRef@@@1@@Z ; std::_Default_allocator_traits<std::allocator<std::_Tree_node<std::pair<unsigned __int64 const ,InternalRef>,void *> > >::destroy<std::pair<unsigned __int64 const ,InternalRef> >
PUBLIC	??$exchange@PEAU?$_Tree_node@U?$pair@$$CB_KUInternalRef@@@std@@PEAX@std@@$$T@std@@YAPEAU?$_Tree_node@U?$pair@$$CB_KUInternalRef@@@std@@PEAX@0@AEAPEAU10@$$QEA$$T@Z ; std::exchange<std::_Tree_node<std::pair<unsigned __int64 const ,InternalRef>,void *> *,std::nullptr_t>
PUBLIC	??$exchange@PEAV_Facet_base@std@@PEAV12@@std@@YAPEAV_Facet_base@0@AEAPEAV10@$$QEAPEAV10@@Z ; std::exchange<std::_Facet_base *,std::_Facet_base *>
PUBLIC	??$_Atomic_address_as@$$CB_J$$CBU?$_Atomic_padded@_K@std@@@std@@YAPED_JAEBU?$_Atomic_padded@_K@0@@Z ; std::_Atomic_address_as<__int64 const ,std::_Atomic_padded<unsigned __int64> const >
PUBLIC	??$_Atomic_reinterpret_as@_J_K@std@@YA_JAEB_K@Z	; std::_Atomic_reinterpret_as<__int64,unsigned __int64>
PUBLIC	??$_Atomic_address_as@_JU?$_Atomic_padded@_K@std@@@std@@YAPEC_JAEAU?$_Atomic_padded@_K@0@@Z ; std::_Atomic_address_as<__int64,std::_Atomic_padded<unsigned __int64> >
PUBLIC	??$_Get_size_of_n@$0DA@@std@@YA_K_K@Z		; std::_Get_size_of_n<48>
PUBLIC	??$?0AEAPEAV_Facet_base@std@@@?$_Compressed_pair@U?$default_delete@V_Facet_base@std@@@std@@PEAV_Facet_base@2@$00@std@@QEAA@U_Zero_then_variadic_args_t@1@AEAPEAV_Facet_base@1@@Z ; std::_Compressed_pair<std::default_delete<std::_Facet_base>,std::_Facet_base *,1>::_Compressed_pair<std::default_delete<std::_Facet_base>,std::_Facet_base *,1><std::_Facet_base * &>
PUBLIC	??$_Kfn@$$CB_KUInternalRef@@@?$_Tmap_traits@_KUInternalRef@@U?$less@_K@std@@V?$allocator@U?$pair@$$CB_KUInternalRef@@@std@@@3@$0A@@std@@SAAEB_KAEBU?$pair@$$CB_KUInternalRef@@@1@@Z ; std::_Tmap_traits<unsigned __int64,InternalRef,std::less<unsigned __int64>,std::allocator<std::pair<unsigned __int64 const ,InternalRef> >,0>::_Kfn<unsigned __int64 const ,InternalRef>
PUBLIC	??$_Debug_lt_pred@AEBU?$less@_K@std@@AEB_KAEB_K$0A@@std@@YA_NAEBU?$less@_K@0@AEB_K1@Z ; std::_Debug_lt_pred<std::less<unsigned __int64> const &,unsigned __int64 const &,unsigned __int64 const &,0>
PUBLIC	??$forward@AEBQEAU?$_Tree_node@U?$pair@$$CB_KUInternalRef@@@std@@PEAX@std@@@std@@YAAEBQEAU?$_Tree_node@U?$pair@$$CB_KUInternalRef@@@std@@PEAX@0@AEBQEAU10@@Z ; std::forward<std::_Tree_node<std::pair<unsigned __int64 const ,InternalRef>,void *> * const &>
PUBLIC	??$forward@_N@std@@YA$$QEA_NAEA_N@Z		; std::forward<bool>
PUBLIC	??$?0AEB_K$0A@@?$tuple@AEB_K@std@@QEAA@AEB_K@Z	; std::tuple<unsigned __int64 const &>::tuple<unsigned __int64 const &><unsigned __int64 const &,0>
PUBLIC	??$forward@AEBUpiecewise_construct_t@std@@@std@@YAAEBUpiecewise_construct_t@0@AEBU10@@Z ; std::forward<std::piecewise_construct_t const &>
PUBLIC	??$forward@V?$tuple@AEB_K@std@@@std@@YA$$QEAV?$tuple@AEB_K@0@AEAV10@@Z ; std::forward<std::tuple<unsigned __int64 const &> >
PUBLIC	??$forward@V?$tuple@$$V@std@@@std@@YA$$QEAV?$tuple@$$V@0@AEAV10@@Z ; std::forward<std::tuple<> >
PUBLIC	??$construct@U?$pair@$$CB_KUInternalRef@@@std@@AEBUpiecewise_construct_t@2@V?$tuple@AEB_K@2@V?$tuple@$$V@2@@?$_Default_allocator_traits@V?$allocator@U?$_Tree_node@U?$pair@$$CB_KUInternalRef@@@std@@PEAX@std@@@std@@@std@@SAXAEAV?$allocator@U?$_Tree_node@U?$pair@$$CB_KUInternalRef@@@std@@PEAX@std@@@1@QEAU?$pair@$$CB_KUInternalRef@@@1@AEBUpiecewise_construct_t@1@$$QEAV?$tuple@AEB_K@1@$$QEAV?$tuple@$$V@1@@Z ; std::_Default_allocator_traits<std::allocator<std::_Tree_node<std::pair<unsigned __int64 const ,InternalRef>,void *> > >::construct<std::pair<unsigned __int64 const ,InternalRef>,std::piecewise_construct_t const &,std::tuple<unsigned __int64 const &>,std::tuple<> >
PUBLIC	??$_Construct_in_place@PEAU?$_Tree_node@U?$pair@$$CB_KUInternalRef@@@std@@PEAX@std@@AEAPEAU12@@std@@YAXAEAPEAU?$_Tree_node@U?$pair@$$CB_KUInternalRef@@@std@@PEAX@0@0@Z ; std::_Construct_in_place<std::_Tree_node<std::pair<unsigned __int64 const ,InternalRef>,void *> *,std::_Tree_node<std::pair<unsigned __int64 const ,InternalRef>,void *> * &>
PUBLIC	??$forward@PEAU?$_Tree_node@U?$pair@$$CB_KUInternalRef@@@std@@PEAX@std@@@std@@YA$$QEAPEAU?$_Tree_node@U?$pair@$$CB_KUInternalRef@@@std@@PEAX@0@AEAPEAU10@@Z ; std::forward<std::_Tree_node<std::pair<unsigned __int64 const ,InternalRef>,void *> *>
PUBLIC	??$exchange@PEAU?$_Tree_node@U?$pair@$$CB_KUInternalRef@@@std@@PEAX@std@@AEAPEAU12@@std@@YAPEAU?$_Tree_node@U?$pair@$$CB_KUInternalRef@@@std@@PEAX@0@AEAPEAU10@0@Z ; std::exchange<std::_Tree_node<std::pair<unsigned __int64 const ,InternalRef>,void *> *,std::_Tree_node<std::pair<unsigned __int64 const ,InternalRef>,void *> * &>
PUBLIC	??$_Freenode@V?$allocator@U?$_Tree_node@U?$pair@$$CB_KUInternalRef@@@std@@PEAX@std@@@std@@@?$_Tree_node@U?$pair@$$CB_KUInternalRef@@@std@@PEAX@std@@SAXAEAV?$allocator@U?$_Tree_node@U?$pair@$$CB_KUInternalRef@@@std@@PEAX@std@@@1@PEAU01@@Z ; std::_Tree_node<std::pair<unsigned __int64 const ,InternalRef>,void *>::_Freenode<std::allocator<std::_Tree_node<std::pair<unsigned __int64 const ,InternalRef>,void *> > >
PUBLIC	?deallocate@?$_Default_allocator_traits@V?$allocator@U_Container_proxy@std@@@std@@@std@@SAXAEAV?$allocator@U_Container_proxy@std@@@2@QEAU_Container_proxy@2@_K@Z ; std::_Default_allocator_traits<std::allocator<std::_Container_proxy> >::deallocate
PUBLIC	??$addressof@PEAU?$_Tree_node@U?$pair@$$CB_KUInternalRef@@@std@@PEAX@std@@@std@@YAPEAPEAU?$_Tree_node@U?$pair@$$CB_KUInternalRef@@@std@@PEAX@0@AEAPEAU10@@Z ; std::addressof<std::_Tree_node<std::pair<unsigned __int64 const ,InternalRef>,void *> *>
PUBLIC	??$addressof@$$CBV?$_Tree_val@U?$_Tree_simple_types@U?$pair@$$CB_KUInternalRef@@@std@@@std@@@std@@@std@@YAPEBV?$_Tree_val@U?$_Tree_simple_types@U?$pair@$$CB_KUInternalRef@@@std@@@std@@@0@AEBV10@@Z ; std::addressof<std::_Tree_val<std::_Tree_simple_types<std::pair<unsigned __int64 const ,InternalRef> > > const >
PUBLIC	??$forward@AEAPEAV_Facet_base@std@@@std@@YAAEAPEAV_Facet_base@0@AEAPEAV10@@Z ; std::forward<std::_Facet_base * &>
PUBLIC	??$?0U_Exact_args_t@std@@AEB_K$$V$0A@@?$tuple@AEB_K@std@@QEAA@U_Exact_args_t@1@AEB_K@Z ; std::tuple<unsigned __int64 const &>::tuple<unsigned __int64 const &><std::_Exact_args_t,unsigned __int64 const &,0>
PUBLIC	??$?0AEB_K$$Z$$V@?$pair@$$CB_KUInternalRef@@@std@@QEAA@Upiecewise_construct_t@1@V?$tuple@AEB_K@1@V?$tuple@$$V@1@@Z ; std::pair<unsigned __int64 const ,InternalRef>::pair<unsigned __int64 const ,InternalRef><unsigned __int64 const &>
PUBLIC	??$forward@AEAPEAU?$_Tree_node@U?$pair@$$CB_KUInternalRef@@@std@@PEAX@std@@@std@@YAAEAPEAU?$_Tree_node@U?$pair@$$CB_KUInternalRef@@@std@@PEAX@0@AEAPEAU10@@Z ; std::forward<std::_Tree_node<std::pair<unsigned __int64 const ,InternalRef>,void *> * &>
PUBLIC	??$?0U_Exact_args_t@std@@$0A@@?$tuple@$$V@std@@QEAA@U_Exact_args_t@1@@Z ; std::tuple<>::tuple<><std::_Exact_args_t,0>
PUBLIC	??$?0AEB_K@?$_Tuple_val@AEB_K@std@@QEAA@AEB_K@Z	; std::_Tuple_val<unsigned __int64 const &>::_Tuple_val<unsigned __int64 const &><unsigned __int64 const &>
PUBLIC	??$?0V?$tuple@AEB_K@std@@V?$tuple@$$V@1@$0A@$$Z$S@?$pair@$$CB_KUInternalRef@@@std@@QEAA@AEAV?$tuple@AEB_K@1@AEAV?$tuple@$$V@1@U?$integer_sequence@_K$0A@@1@U?$integer_sequence@_K$S@1@@Z ; std::pair<unsigned __int64 const ,InternalRef>::pair<unsigned __int64 const ,InternalRef><std::tuple<unsigned __int64 const &>,std::tuple<>,0>
PUBLIC	??$move@AEAV?$tuple@AEB_K@std@@@std@@YA$$QEAV?$tuple@AEB_K@0@AEAV10@@Z ; std::move<std::tuple<unsigned __int64 const &> &>
PUBLIC	??$get@$0A@AEB_K@std@@YAAEB_K$$QEAV?$tuple@AEB_K@0@@Z ; std::get<0,unsigned __int64 const &>
PUBLIC	__JustMyCode_Default
PUBLIC	?piecewise_construct@std@@3Upiecewise_construct_t@1@B ; std::piecewise_construct
PUBLIC	??_7exception@std@@6B@				; std::exception::`vftable'
PUBLIC	??_C@_0BC@EOODALEL@Unknown?5exception@		; `string'
PUBLIC	??_7bad_alloc@std@@6B@				; std::bad_alloc::`vftable'
PUBLIC	??_7bad_array_new_length@std@@6B@		; std::bad_array_new_length::`vftable'
PUBLIC	??_C@_0BF@KINCDENJ@bad?5array?5new?5length@	; `string'
PUBLIC	_TI3?AVbad_array_new_length@std@@
PUBLIC	_CTA3?AVbad_array_new_length@std@@
PUBLIC	??_R0?AVbad_array_new_length@std@@@8		; std::bad_array_new_length `RTTI Type Descriptor'
PUBLIC	_CT??_R0?AVbad_array_new_length@std@@@8??0bad_array_new_length@std@@QEAA@AEBV01@@Z24
PUBLIC	??_R0?AVbad_alloc@std@@@8			; std::bad_alloc `RTTI Type Descriptor'
PUBLIC	_CT??_R0?AVbad_alloc@std@@@8??0bad_alloc@std@@QEAA@AEBV01@@Z24
PUBLIC	??_R0?AVexception@std@@@8			; std::exception `RTTI Type Descriptor'
PUBLIC	_CT??_R0?AVexception@std@@@8??0exception@std@@QEAA@AEBV01@@Z24
PUBLIC	?__LINE__Var@?0??_Adjust_manually_vector_aligned@std@@YAXAEAPEAXAEA_K@Z@4JA ; `std::_Adjust_manually_vector_aligned'::`1'::__LINE__Var
PUBLIC	??_C@_0BB@FCMFBGOM@invalid?5argument@		; `string'
PUBLIC	??_C@_02DKCKIIND@?$CFs@				; `string'
PUBLIC	??_C@_0GG@JDFHJMAH@F?3?2Program?5Files?5?$CIx86?$CJ?2Microsof@ ; `string'
PUBLIC	??_C@_1MM@MFDDHHMO@?$AAF?$AA?3?$AA?2?$AAP?$AAr?$AAo?$AAg?$AAr?$AAa?$AAm?$AA?5?$AAF?$AAi?$AAl?$AAe@ ; `string'
PUBLIC	??_C@_1EK@NIFDJFDG@?$AAs?$AAt?$AAd?$AA?3?$AA?3?$AA_?$AAA?$AAd?$AAj?$AAu?$AAs?$AAt?$AA_?$AAm?$AAa@ ; `string'
PUBLIC	??_C@_1CG@JNLFBNGN@?$AA?$CC?$AAi?$AAn?$AAv?$AAa?$AAl?$AAi?$AAd?$AA?5?$AAa?$AAr?$AAg?$AAu?$AAm?$AAe@ ; `string'
PUBLIC	??_C@_0BA@JFNIOLAK@string?5too?5long@		; `string'
PUBLIC	??_7runtime_error@std@@6B@			; std::runtime_error::`vftable'
PUBLIC	??_R0?AVruntime_error@std@@@8			; std::runtime_error `RTTI Type Descriptor'
PUBLIC	_CT??_R0?AVruntime_error@std@@@8??0runtime_error@std@@QEAA@AEBV01@@Z24
PUBLIC	??_C@_0BF@FBDAHHJI@Invalid?5memory?5order@	; `string'
PUBLIC	??_C@_0GF@LMMBJOFI@F?3?2Program?5Files?5?$CIx86?$CJ?2Microsof@ ; `string'
PUBLIC	??_C@_1MK@BBCNMNEJ@?$AAF?$AA?3?$AA?2?$AAP?$AAr?$AAo?$AAg?$AAr?$AAa?$AAm?$AA?5?$AAF?$AAi?$AAl?$AAe@ ; `string'
PUBLIC	??_C@_1CO@JOMFDNFG@?$AA?$CC?$AAI?$AAn?$AAv?$AAa?$AAl?$AAi?$AAd?$AA?5?$AAm?$AAe?$AAm?$AAo?$AAr?$AAy@ ; `string'
PUBLIC	?__LINE__Var@?0??_Load_barrier@std@@YAXW4memory_order@2@@Z@4JA ; `std::_Load_barrier'::`1'::__LINE__Var
PUBLIC	??_C@_1CG@GPPLBDPC@?$AAs?$AAt?$AAd?$AA?3?$AA?3?$AA_?$AAL?$AAo?$AAa?$AAd?$AA_?$AAb?$AAa?$AAr?$AAr@ ; `string'
PUBLIC	??_7_System_error@std@@6B@			; std::_System_error::`vftable'
PUBLIC	??_C@_02LMMGGCAJ@?3?5@				; `string'
PUBLIC	??_7system_error@std@@6B@			; std::system_error::`vftable'
PUBLIC	??_C@_00CNPNBAHC@@				; `string'
PUBLIC	??_R0?AVsystem_error@std@@@8			; std::system_error `RTTI Type Descriptor'
PUBLIC	_CT??_R0?AVsystem_error@std@@@8??0system_error@std@@QEAA@AEBV01@@Z40
PUBLIC	??_R0?AV_System_error@std@@@8			; std::_System_error `RTTI Type Descriptor'
PUBLIC	_CT??_R0?AV_System_error@std@@@8??0_System_error@std@@QEAA@AEBV01@@Z40
PUBLIC	??_7_Iostream_error_category2@std@@6B@		; std::_Iostream_error_category2::`vftable'
PUBLIC	??_C@_08LLGCOLLL@iostream@			; `string'
PUBLIC	?_Iostream_error@?4??message@_Iostream_error_category2@std@@UEBA?AV?$basic_string@DU?$char_traits@D@std@@V?$allocator@D@2@@3@H@Z@4QBDB ; `std::_Iostream_error_category2::message'::`5'::_Iostream_error
PUBLIC	??_7bad_cast@std@@6B@				; std::bad_cast::`vftable'
PUBLIC	??_C@_08EPJLHIJG@bad?5cast@			; `string'
PUBLIC	_TI2?AVbad_cast@std@@
PUBLIC	_CTA2?AVbad_cast@std@@
PUBLIC	??_R0?AVbad_cast@std@@@8			; std::bad_cast `RTTI Type Descriptor'
PUBLIC	_CT??_R0?AVbad_cast@std@@@8??0bad_cast@std@@QEAA@AEBV01@@Z24
PUBLIC	??_7_Facet_base@std@@6B@			; std::_Facet_base::`vftable'
PUBLIC	??_C@_0BA@ELKIONDK@bad?5locale?5name@		; `string'
PUBLIC	??_C@_0GG@DLJLKOKA@F?3?2Program?5Files?5?$CIx86?$CJ?2Microsof@ ; `string'
PUBLIC	??_7facet@locale@std@@6B@			; std::locale::facet::`vftable'
PUBLIC	??_7ctype_base@std@@6B@				; std::ctype_base::`vftable'
PUBLIC	??_7?$ctype@D@std@@6B@				; std::ctype<char>::`vftable'
PUBLIC	??_7failure@ios_base@std@@6B@			; std::ios_base::failure::`vftable'
PUBLIC	??_C@_0BF@PHHKMMFD@ios_base?3?3badbit?5set@	; `string'
PUBLIC	??_C@_0BG@FMKFHCIL@ios_base?3?3failbit?5set@	; `string'
PUBLIC	??_C@_0BF@OOHOMBOF@ios_base?3?3eofbit?5set@	; `string'
PUBLIC	_TI5?AVfailure@ios_base@std@@
PUBLIC	_CTA5?AVfailure@ios_base@std@@
PUBLIC	??_R0?AVfailure@ios_base@std@@@8		; std::ios_base::failure `RTTI Type Descriptor'
PUBLIC	_CT??_R0?AVfailure@ios_base@std@@@8??0failure@ios_base@std@@QEAA@AEBV012@@Z40
PUBLIC	??_C@_0BB@GCADKGJO@map?1set?5too?5long@		; `string'
PUBLIC	??_7IRef@@6B@					; IRef::`vftable'
PUBLIC	?m_Stack@Allocator@@0PEAEEA			; Allocator::m_Stack
PUBLIC	?m_CurrentHandle@Allocator@@0_KA		; Allocator::m_CurrentHandle
PUBLIC	?m_Map@Allocator@@0V?$map@_KUInternalRef@@U?$less@_K@std@@V?$allocator@U?$pair@$$CB_KUInternalRef@@@std@@@3@@std@@A ; Allocator::m_Map
PUBLIC	??_C@_0BC@HOFJGBDP@Student?5Destroyed@		; `string'
PUBLIC	??_7?$Ref@UStudent@@@@6B@			; Ref<Student>::`vftable'
PUBLIC	?_Storage@?1???$_Immortalize_memcpy_image@V_Iostream_error_category2@std@@@std@@YAAEBV_Iostream_error_category2@1@XZ@4PAU?$atomic@_K@1@A ; `std::_Immortalize_memcpy_image<std::_Iostream_error_category2>'::`2'::_Storage
PUBLIC	?_Psave@?$_Facetptr@V?$ctype@D@std@@@std@@2PEBVfacet@locale@2@EB ; std::_Facetptr<std::ctype<char> >::_Psave
PUBLIC	??_C@_1GA@MFCCELOD@?$AAs?$AAt?$AAd?$AA?3?$AA?3?$AA_?$AAA?$AAt?$AAo?$AAm?$AAi?$AAc?$AA_?$AAs?$AAt@ ; `string'
PUBLIC	??_C@_0BJ@HAJGEHKO@transposed?5pointer?5range@	; `string'
PUBLIC	??_C@_0GH@FNAMMGGP@F?3?2Program?5Files?5?$CIx86?$CJ?2Microsof@ ; `string'
PUBLIC	??_C@_1MO@JGNIPGGO@?$AAF?$AA?3?$AA?2?$AAP?$AAr?$AAo?$AAg?$AAr?$AAa?$AAm?$AA?5?$AAF?$AAi?$AAl?$AAe@ ; `string'
PUBLIC	??_C@_1CG@LJCPDKEJ@?$AAs?$AAt?$AAd?$AA?3?$AA?3?$AA_?$AAV?$AAe?$AAr?$AAi?$AAf?$AAy?$AA_?$AAr?$AAa@ ; `string'
PUBLIC	??_C@_1DG@FJIKMGFD@?$AA?$CC?$AAt?$AAr?$AAa?$AAn?$AAs?$AAp?$AAo?$AAs?$AAe?$AAd?$AA?5?$AAp?$AAo?$AAi@ ; `string'
PUBLIC	??_C@_1EO@GFNCMDLA@?$AAs?$AAt?$AAd?$AA?3?$AA?3?$AA_?$AAA?$AAl?$AAl?$AAo?$AAc?$AAa?$AAt?$AAe?$AA_@ ; `string'
PUBLIC	??_C@_0BD@FEEMDEPI@invalid?5comparator@		; `string'
PUBLIC	??_C@_1CI@JONCLBEJ@?$AAs?$AAt?$AAd?$AA?3?$AA?3?$AA_?$AAD?$AAe?$AAb?$AAu?$AAg?$AA_?$AAl?$AAt?$AA_@ ; `string'
PUBLIC	??_C@_1CK@NDNHPKPI@?$AA?$CC?$AAi?$AAn?$AAv?$AAa?$AAl?$AAi?$AAd?$AA?5?$AAc?$AAo?$AAm?$AAp?$AAa?$AAr@ ; `string'
PUBLIC	??_R4exception@std@@6B@				; std::exception::`RTTI Complete Object Locator'
PUBLIC	??_R3exception@std@@8				; std::exception::`RTTI Class Hierarchy Descriptor'
PUBLIC	??_R2exception@std@@8				; std::exception::`RTTI Base Class Array'
PUBLIC	??_R1A@?0A@EA@exception@std@@8			; std::exception::`RTTI Base Class Descriptor at (0,-1,0,64)'
PUBLIC	??_R4bad_alloc@std@@6B@				; std::bad_alloc::`RTTI Complete Object Locator'
PUBLIC	??_R3bad_alloc@std@@8				; std::bad_alloc::`RTTI Class Hierarchy Descriptor'
PUBLIC	??_R2bad_alloc@std@@8				; std::bad_alloc::`RTTI Base Class Array'
PUBLIC	??_R1A@?0A@EA@bad_alloc@std@@8			; std::bad_alloc::`RTTI Base Class Descriptor at (0,-1,0,64)'
PUBLIC	??_R4bad_array_new_length@std@@6B@		; std::bad_array_new_length::`RTTI Complete Object Locator'
PUBLIC	??_R3bad_array_new_length@std@@8		; std::bad_array_new_length::`RTTI Class Hierarchy Descriptor'
PUBLIC	??_R2bad_array_new_length@std@@8		; std::bad_array_new_length::`RTTI Base Class Array'
PUBLIC	??_R1A@?0A@EA@bad_array_new_length@std@@8	; std::bad_array_new_length::`RTTI Base Class Descriptor at (0,-1,0,64)'
PUBLIC	??_R4runtime_error@std@@6B@			; std::runtime_error::`RTTI Complete Object Locator'
PUBLIC	??_R3runtime_error@std@@8			; std::runtime_error::`RTTI Class Hierarchy Descriptor'
PUBLIC	??_R2runtime_error@std@@8			; std::runtime_error::`RTTI Base Class Array'
PUBLIC	??_R1A@?0A@EA@runtime_error@std@@8		; std::runtime_error::`RTTI Base Class Descriptor at (0,-1,0,64)'
PUBLIC	??_R0?AVerror_category@std@@@8			; std::error_category `RTTI Type Descriptor'
PUBLIC	??_R3error_category@std@@8			; std::error_category::`RTTI Class Hierarchy Descriptor'
PUBLIC	??_R2error_category@std@@8			; std::error_category::`RTTI Base Class Array'
PUBLIC	??_R1A@?0A@EA@error_category@std@@8		; std::error_category::`RTTI Base Class Descriptor at (0,-1,0,64)'
PUBLIC	??_R4_System_error@std@@6B@			; std::_System_error::`RTTI Complete Object Locator'
PUBLIC	??_R3_System_error@std@@8			; std::_System_error::`RTTI Class Hierarchy Descriptor'
PUBLIC	??_R2_System_error@std@@8			; std::_System_error::`RTTI Base Class Array'
PUBLIC	??_R1A@?0A@EA@_System_error@std@@8		; std::_System_error::`RTTI Base Class Descriptor at (0,-1,0,64)'
PUBLIC	??_R4system_error@std@@6B@			; std::system_error::`RTTI Complete Object Locator'
PUBLIC	??_R3system_error@std@@8			; std::system_error::`RTTI Class Hierarchy Descriptor'
PUBLIC	??_R2system_error@std@@8			; std::system_error::`RTTI Base Class Array'
PUBLIC	??_R1A@?0A@EA@system_error@std@@8		; std::system_error::`RTTI Base Class Descriptor at (0,-1,0,64)'
PUBLIC	??_R4_Iostream_error_category2@std@@6B@		; std::_Iostream_error_category2::`RTTI Complete Object Locator'
PUBLIC	??_R0?AV_Iostream_error_category2@std@@@8	; std::_Iostream_error_category2 `RTTI Type Descriptor'
PUBLIC	??_R3_Iostream_error_category2@std@@8		; std::_Iostream_error_category2::`RTTI Class Hierarchy Descriptor'
PUBLIC	??_R2_Iostream_error_category2@std@@8		; std::_Iostream_error_category2::`RTTI Base Class Array'
PUBLIC	??_R1A@?0A@EA@_Iostream_error_category2@std@@8	; std::_Iostream_error_category2::`RTTI Base Class Descriptor at (0,-1,0,64)'
PUBLIC	??_R4bad_cast@std@@6B@				; std::bad_cast::`RTTI Complete Object Locator'
PUBLIC	??_R3bad_cast@std@@8				; std::bad_cast::`RTTI Class Hierarchy Descriptor'
PUBLIC	??_R2bad_cast@std@@8				; std::bad_cast::`RTTI Base Class Array'
PUBLIC	??_R1A@?0A@EA@bad_cast@std@@8			; std::bad_cast::`RTTI Base Class Descriptor at (0,-1,0,64)'
PUBLIC	??_R4_Facet_base@std@@6B@			; std::_Facet_base::`RTTI Complete Object Locator'
PUBLIC	??_R0?AV_Facet_base@std@@@8			; std::_Facet_base `RTTI Type Descriptor'
PUBLIC	??_R3_Facet_base@std@@8				; std::_Facet_base::`RTTI Class Hierarchy Descriptor'
PUBLIC	??_R2_Facet_base@std@@8				; std::_Facet_base::`RTTI Base Class Array'
PUBLIC	??_R1A@?0A@EA@_Facet_base@std@@8		; std::_Facet_base::`RTTI Base Class Descriptor at (0,-1,0,64)'
PUBLIC	??_R1A@?0A@EA@facet@locale@std@@8		; std::locale::facet::`RTTI Base Class Descriptor at (0,-1,0,64)'
PUBLIC	??_R0?AVfacet@locale@std@@@8			; std::locale::facet `RTTI Type Descriptor'
PUBLIC	??_R3facet@locale@std@@8			; std::locale::facet::`RTTI Class Hierarchy Descriptor'
PUBLIC	??_R2facet@locale@std@@8			; std::locale::facet::`RTTI Base Class Array'
PUBLIC	??_R17?0A@EA@_Crt_new_delete@std@@8		; std::_Crt_new_delete::`RTTI Base Class Descriptor at (8,-1,0,64)'
PUBLIC	??_R0?AU_Crt_new_delete@std@@@8			; std::_Crt_new_delete `RTTI Type Descriptor'
PUBLIC	??_R3_Crt_new_delete@std@@8			; std::_Crt_new_delete::`RTTI Class Hierarchy Descriptor'
PUBLIC	??_R2_Crt_new_delete@std@@8			; std::_Crt_new_delete::`RTTI Base Class Array'
PUBLIC	??_R1A@?0A@EA@_Crt_new_delete@std@@8		; std::_Crt_new_delete::`RTTI Base Class Descriptor at (0,-1,0,64)'
PUBLIC	??_R4facet@locale@std@@6B@			; std::locale::facet::`RTTI Complete Object Locator'
PUBLIC	??_R4ctype_base@std@@6B@			; std::ctype_base::`RTTI Complete Object Locator'
PUBLIC	??_R0?AUctype_base@std@@@8			; std::ctype_base `RTTI Type Descriptor'
PUBLIC	??_R3ctype_base@std@@8				; std::ctype_base::`RTTI Class Hierarchy Descriptor'
PUBLIC	??_R2ctype_base@std@@8				; std::ctype_base::`RTTI Base Class Array'
PUBLIC	??_R1A@?0A@EA@ctype_base@std@@8			; std::ctype_base::`RTTI Base Class Descriptor at (0,-1,0,64)'
PUBLIC	??_R4?$ctype@D@std@@6B@				; std::ctype<char>::`RTTI Complete Object Locator'
PUBLIC	??_R0?AV?$ctype@D@std@@@8			; std::ctype<char> `RTTI Type Descriptor'
PUBLIC	??_R3?$ctype@D@std@@8				; std::ctype<char>::`RTTI Class Hierarchy Descriptor'
PUBLIC	??_R2?$ctype@D@std@@8				; std::ctype<char>::`RTTI Base Class Array'
PUBLIC	??_R1A@?0A@EA@?$ctype@D@std@@8			; std::ctype<char>::`RTTI Base Class Descriptor at (0,-1,0,64)'
PUBLIC	??_R4failure@ios_base@std@@6B@			; std::ios_base::failure::`RTTI Complete Object Locator'
PUBLIC	??_R3failure@ios_base@std@@8			; std::ios_base::failure::`RTTI Class Hierarchy Descriptor'
PUBLIC	??_R2failure@ios_base@std@@8			; std::ios_base::failure::`RTTI Base Class Array'
PUBLIC	??_R1A@?0A@EA@failure@ios_base@std@@8		; std::ios_base::failure::`RTTI Base Class Descriptor at (0,-1,0,64)'
PUBLIC	??_R4IRef@@6B@					; IRef::`RTTI Complete Object Locator'
PUBLIC	??_R0?AVIRef@@@8				; IRef `RTTI Type Descriptor'
PUBLIC	??_R3IRef@@8					; IRef::`RTTI Class Hierarchy Descriptor'
PUBLIC	??_R2IRef@@8					; IRef::`RTTI Base Class Array'
PUBLIC	??_R1A@?0A@EA@IRef@@8				; IRef::`RTTI Base Class Descriptor at (0,-1,0,64)'
PUBLIC	??_R4?$Ref@UStudent@@@@6B@			; Ref<Student>::`RTTI Complete Object Locator'
PUBLIC	??_R0?AV?$Ref@UStudent@@@@@8			; Ref<Student> `RTTI Type Descriptor'
PUBLIC	??_R3?$Ref@UStudent@@@@8			; Ref<Student>::`RTTI Class Hierarchy Descriptor'
PUBLIC	??_R2?$Ref@UStudent@@@@8			; Ref<Student>::`RTTI Base Class Array'
PUBLIC	??_R1A@?0A@EA@?$Ref@UStudent@@@@8		; Ref<Student>::`RTTI Base Class Descriptor at (0,-1,0,64)'
EXTRN	_purecall:PROC
EXTRN	??2@YAPEAX_K@Z:PROC				; operator new
EXTRN	??3@YAXPEAX_K@Z:PROC				; operator delete
EXTRN	?__global_delete@@YAXPEAX_K@Z:PROC		; __global_delete
EXTRN	??_V@YAXPEAX@Z:PROC				; operator delete[]
EXTRN	atexit:PROC
EXTRN	_invalid_parameter:PROC
EXTRN	_free_dbg:PROC
EXTRN	_malloc_dbg:PROC
EXTRN	_CrtDbgReport:PROC
EXTRN	??0_Lockit@std@@QEAA@H@Z:PROC			; std::_Lockit::_Lockit
EXTRN	??1_Lockit@std@@QEAA@XZ:PROC			; std::_Lockit::~_Lockit
EXTRN	free:PROC
EXTRN	memcpy:PROC
EXTRN	memmove:PROC
EXTRN	?_Xbad_alloc@std@@YAXXZ:PROC			; std::_Xbad_alloc
EXTRN	?_Xlength_error@std@@YAXPEBD@Z:PROC		; std::_Xlength_error
EXTRN	?_Xruntime_error@std@@YAXPEBD@Z:PROC		; std::_Xruntime_error
EXTRN	?uncaught_exception@std@@YA_NXZ:PROC		; std::uncaught_exception
EXTRN	__std_exception_copy:PROC
EXTRN	__std_exception_destroy:PROC
EXTRN	??_Eexception@std@@UEAAPEAXI@Z:PROC		; std::exception::`vector deleting destructor'
EXTRN	??_Ebad_alloc@std@@UEAAPEAXI@Z:PROC		; std::bad_alloc::`vector deleting destructor'
EXTRN	??_Ebad_array_new_length@std@@UEAAPEAXI@Z:PROC	; std::bad_array_new_length::`vector deleting destructor'
EXTRN	??_Eruntime_error@std@@UEAAPEAXI@Z:PROC		; std::runtime_error::`vector deleting destructor'
EXTRN	??_E_System_error@std@@UEAAPEAXI@Z:PROC		; std::_System_error::`vector deleting destructor'
EXTRN	??_Esystem_error@std@@UEAAPEAXI@Z:PROC		; std::system_error::`vector deleting destructor'
EXTRN	?_Syserror_map@std@@YAPEBDH@Z:PROC		; std::_Syserror_map
EXTRN	??_E_Iostream_error_category2@std@@UEAAPEAXI@Z:PROC ; std::_Iostream_error_category2::`vector deleting destructor'
EXTRN	??_Ebad_cast@std@@UEAAPEAXI@Z:PROC		; std::bad_cast::`vector deleting destructor'
EXTRN	??_E_Facet_base@std@@UEAAPEAXI@Z:PROC		; std::_Facet_base::`vector deleting destructor'
EXTRN	?_Facet_Register@std@@YAXPEAV_Facet_base@1@@Z:PROC ; std::_Facet_Register
EXTRN	_Getctype:PROC
EXTRN	_Tolower:PROC
EXTRN	_Toupper:PROC
EXTRN	?_Locinfo_ctor@_Locinfo@std@@SAXPEAV12@PEBD@Z:PROC ; std::_Locinfo::_Locinfo_ctor
EXTRN	?_Locinfo_dtor@_Locinfo@std@@SAXPEAV12@@Z:PROC	; std::_Locinfo::_Locinfo_dtor
EXTRN	??_Efacet@locale@std@@MEAAPEAXI@Z:PROC		; std::locale::facet::`vector deleting destructor'
EXTRN	?_Getgloballocale@locale@std@@CAPEAV_Locimp@12@XZ:PROC ; std::locale::_Getgloballocale
EXTRN	??_Ectype_base@std@@UEAAPEAXI@Z:PROC		; std::ctype_base::`vector deleting destructor'
EXTRN	??_E?$ctype@D@std@@MEAAPEAXI@Z:PROC		; std::ctype<char>::`vector deleting destructor'
EXTRN	??_Efailure@ios_base@std@@UEAAPEAXI@Z:PROC	; std::ios_base::failure::`vector deleting destructor'
EXTRN	??_EIRef@@UEAAPEAXI@Z:PROC			; IRef::`vector deleting destructor'
EXTRN	?Init@Allocator@@SAXXZ:PROC			; Allocator::Init
EXTRN	??_E?$Ref@UStudent@@@@UEAAPEAXI@Z:PROC		; Ref<Student>::`vector deleting destructor'
EXTRN	_CxxThrowException:PROC
EXTRN	_RTC_CheckStackVars:PROC
EXTRN	_RTC_InitBase:PROC
EXTRN	_RTC_Shutdown:PROC
EXTRN	__CheckForDebuggerJustMyCode:PROC
EXTRN	__CxxFrameHandler4:PROC
EXTRN	__GSHandlerCheck_EH4:PROC
EXTRN	__security_check_cookie:PROC
EXTRN	?nothrow@std@@3Unothrow_t@1@B:BYTE		; std::nothrow
EXTRN	??_7type_info@@6B@:BYTE				; type_info::`vftable'
EXTRN	?_Id_cnt@id@locale@std@@0HA:DWORD		; std::locale::id::_Id_cnt
EXTRN	?id@?$ctype@D@std@@2V0locale@2@A:QWORD		; std::ctype<char>::id
EXTRN	?cout@std@@3V?$basic_ostream@DU?$char_traits@D@std@@@1@A:BYTE ; std::cout
EXTRN	__security_cookie:QWORD
EXTRN	_fltused:DWORD
;	COMDAT ?m_Stack@Allocator@@0PEAEEA
_BSS	SEGMENT
?m_Stack@Allocator@@0PEAEEA DQ 01H DUP (?)		; Allocator::m_Stack
_BSS	ENDS
;	COMDAT ?m_CurrentHandle@Allocator@@0_KA
_BSS	SEGMENT
?m_CurrentHandle@Allocator@@0_KA DQ 01H DUP (?)		; Allocator::m_CurrentHandle
_BSS	ENDS
;	COMDAT ?m_Map@Allocator@@0V?$map@_KUInternalRef@@U?$less@_K@std@@V?$allocator@U?$pair@$$CB_KUInternalRef@@@std@@@3@@std@@A
_BSS	SEGMENT
?m_Map@Allocator@@0V?$map@_KUInternalRef@@U?$less@_K@std@@V?$allocator@U?$pair@$$CB_KUInternalRef@@@std@@@3@@std@@A DB 018H DUP (?) ; Allocator::m_Map
_BSS	ENDS
;	COMDAT ?_Storage@?1???$_Immortalize_memcpy_image@V_Iostream_error_category2@std@@@std@@YAAEBV_Iostream_error_category2@1@XZ@4PAU?$atomic@_K@1@A
_BSS	SEGMENT
?_Storage@?1???$_Immortalize_memcpy_image@V_Iostream_error_category2@std@@@std@@YAAEBV_Iostream_error_category2@1@XZ@4PAU?$atomic@_K@1@A DQ 02H DUP (?) ; `std::_Immortalize_memcpy_image<std::_Iostream_error_category2>'::`2'::_Storage
_BSS	ENDS
;	COMDAT ?_Psave@?$_Facetptr@V?$ctype@D@std@@@std@@2PEBVfacet@locale@2@EB
_BSS	SEGMENT
?_Psave@?$_Facetptr@V?$ctype@D@std@@@std@@2PEBVfacet@locale@2@EB DQ 01H DUP (?) ; std::_Facetptr<std::ctype<char> >::_Psave
_BSS	ENDS
;	COMDAT pdata
pdata	SEGMENT
$pdata$?__empty_global_delete@@YAXPEAX@Z DD imagerel $LN3
	DD	imagerel $LN3+65
	DD	imagerel $unwind$?__empty_global_delete@@YAXPEAX@Z
pdata	ENDS
;	COMDAT pdata
pdata	SEGMENT
$pdata$?__empty_global_delete@@YAXPEAX_K@Z DD imagerel $LN3
	DD	imagerel $LN3+70
	DD	imagerel $unwind$?__empty_global_delete@@YAXPEAX_K@Z
pdata	ENDS
;	COMDAT pdata
pdata	SEGMENT
$pdata$?__empty_global_delete@@YAXPEAXW4align_val_t@std@@@Z DD imagerel $LN3
	DD	imagerel $LN3+70
	DD	imagerel $unwind$?__empty_global_delete@@YAXPEAXW4align_val_t@std@@@Z
pdata	ENDS
;	COMDAT pdata
pdata	SEGMENT
$pdata$?__empty_global_delete@@YAXPEAX_KW4align_val_t@std@@@Z DD imagerel $LN3
	DD	imagerel $LN3+75
	DD	imagerel $unwind$?__empty_global_delete@@YAXPEAX_KW4align_val_t@std@@@Z
pdata	ENDS
;	COMDAT pdata
pdata	SEGMENT
$pdata$??2@YAPEAX_KPEAX@Z DD imagerel $LN3
	DD	imagerel $LN3+76
	DD	imagerel $unwind$??2@YAPEAX_KPEAX@Z
pdata	ENDS
;	COMDAT pdata
pdata	SEGMENT
$pdata$??0exception@std@@QEAA@QEBD@Z DD imagerel $LN3
	DD	imagerel $LN3+176
	DD	imagerel $unwind$??0exception@std@@QEAA@QEBD@Z
pdata	ENDS
;	COMDAT pdata
pdata	SEGMENT
$pdata$??0exception@std@@QEAA@QEBDH@Z DD imagerel $LN3
	DD	imagerel $LN3+139
	DD	imagerel $unwind$??0exception@std@@QEAA@QEBDH@Z
pdata	ENDS
;	COMDAT pdata
pdata	SEGMENT
$pdata$??0exception@std@@QEAA@AEBV01@@Z DD imagerel $LN3
	DD	imagerel $LN3+146
	DD	imagerel $unwind$??0exception@std@@QEAA@AEBV01@@Z
pdata	ENDS
;	COMDAT pdata
pdata	SEGMENT
$pdata$??1exception@std@@UEAA@XZ DD imagerel $LN3
	DD	imagerel $LN3+101
	DD	imagerel $unwind$??1exception@std@@UEAA@XZ
pdata	ENDS
;	COMDAT pdata
pdata	SEGMENT
$pdata$?what@exception@std@@UEBAPEBDXZ DD imagerel $LN5
	DD	imagerel $LN5+119
	DD	imagerel $unwind$?what@exception@std@@UEBAPEBDXZ
pdata	ENDS
;	COMDAT pdata
pdata	SEGMENT
$pdata$??_Gexception@std@@UEAAPEAXI@Z DD imagerel $LN4
	DD	imagerel $LN4+105
	DD	imagerel $unwind$??_Gexception@std@@UEAAPEAXI@Z
pdata	ENDS
;	COMDAT pdata
pdata	SEGMENT
$pdata$??0bad_alloc@std@@AEAA@QEBD@Z DD imagerel $LN3
	DD	imagerel $LN3+118
	DD	imagerel $unwind$??0bad_alloc@std@@AEAA@QEBD@Z
pdata	ENDS
;	COMDAT pdata
pdata	SEGMENT
$pdata$??1bad_alloc@std@@UEAA@XZ DD imagerel $LN3
	DD	imagerel $LN3+64
	DD	imagerel $unwind$??1bad_alloc@std@@UEAA@XZ
pdata	ENDS
;	COMDAT pdata
pdata	SEGMENT
$pdata$??0bad_alloc@std@@QEAA@AEBV01@@Z DD imagerel $LN3
	DD	imagerel $LN3+100
	DD	imagerel $unwind$??0bad_alloc@std@@QEAA@AEBV01@@Z
pdata	ENDS
;	COMDAT pdata
pdata	SEGMENT
$pdata$??_Gbad_alloc@std@@UEAAPEAXI@Z DD imagerel $LN4
	DD	imagerel $LN4+105
	DD	imagerel $unwind$??_Gbad_alloc@std@@UEAAPEAXI@Z
pdata	ENDS
;	COMDAT pdata
pdata	SEGMENT
$pdata$??0bad_array_new_length@std@@QEAA@XZ DD imagerel $LN3
	DD	imagerel $LN3+107
	DD	imagerel $unwind$??0bad_array_new_length@std@@QEAA@XZ
pdata	ENDS
;	COMDAT pdata
pdata	SEGMENT
$pdata$??1bad_array_new_length@std@@UEAA@XZ DD imagerel $LN3
	DD	imagerel $LN3+64
	DD	imagerel $unwind$??1bad_array_new_length@std@@UEAA@XZ
pdata	ENDS
;	COMDAT pdata
pdata	SEGMENT
$pdata$??0bad_array_new_length@std@@QEAA@AEBV01@@Z DD imagerel $LN3
	DD	imagerel $LN3+100
	DD	imagerel $unwind$??0bad_array_new_length@std@@QEAA@AEBV01@@Z
pdata	ENDS
;	COMDAT pdata
pdata	SEGMENT
$pdata$??_Gbad_array_new_length@std@@UEAAPEAXI@Z DD imagerel $LN4
	DD	imagerel $LN4+105
	DD	imagerel $unwind$??_Gbad_array_new_length@std@@UEAAPEAXI@Z
pdata	ENDS
;	COMDAT pdata
pdata	SEGMENT
$pdata$?_Throw_bad_array_new_length@std@@YAXXZ DD imagerel $LN3
	DD	imagerel $LN3+83
	DD	imagerel $unwind$?_Throw_bad_array_new_length@std@@YAXXZ
pdata	ENDS
;	COMDAT pdata
pdata	SEGMENT
$pdata$?max@?$numeric_limits@_J@std@@SA_JXZ DD imagerel $LN3
	DD	imagerel $LN3+62
	DD	imagerel $unwind$?max@?$numeric_limits@_J@std@@SA_JXZ
pdata	ENDS
;	COMDAT pdata
pdata	SEGMENT
$pdata$?_Allocate@_Default_allocate_traits@std@@SAPEAX_K@Z DD imagerel $LN3
	DD	imagerel $LN3+76
	DD	imagerel $unwind$?_Allocate@_Default_allocate_traits@std@@SAPEAX_K@Z
pdata	ENDS
;	COMDAT pdata
pdata	SEGMENT
$pdata$?_Adjust_manually_vector_aligned@std@@YAXAEAPEAXAEA_K@Z DD imagerel $LN21
	DD	imagerel $LN21+472
	DD	imagerel $unwind$?_Adjust_manually_vector_aligned@std@@YAXAEAPEAXAEA_K@Z
pdata	ENDS
;	COMDAT pdata
pdata	SEGMENT
$pdata$??$_Convert_size@_K@std@@YA_K_K@Z DD imagerel $LN3
	DD	imagerel $LN3+71
	DD	imagerel $unwind$??$_Convert_size@_K@std@@YA_K_K@Z
pdata	ENDS
;	COMDAT pdata
pdata	SEGMENT
$pdata$??0_Container_proxy@std@@QEAA@PEAU_Container_base12@1@@Z DD imagerel $LN3
	DD	imagerel $LN3+108
	DD	imagerel $unwind$??0_Container_proxy@std@@QEAA@PEAU_Container_base12@1@@Z
pdata	ENDS
;	COMDAT pdata
pdata	SEGMENT
$pdata$??0_Container_base12@std@@QEAA@XZ DD imagerel $LN3
	DD	imagerel $LN3+85
	DD	imagerel $unwind$??0_Container_base12@std@@QEAA@XZ
pdata	ENDS
;	COMDAT pdata
pdata	SEGMENT
$pdata$?_Orphan_all@_Container_base12@std@@QEAAXXZ DD imagerel $LN7
	DD	imagerel $LN7+199
	DD	imagerel $unwind$?_Orphan_all@_Container_base12@std@@QEAAXXZ
pdata	ENDS
;	COMDAT pdata
pdata	SEGMENT
$pdata$?_Swap_proxy_and_iterators@_Container_base12@std@@QEAAXAEAU12@@Z DD imagerel $LN5
	DD	imagerel $LN5+223
	DD	imagerel $unwind$?_Swap_proxy_and_iterators@_Container_base12@std@@QEAAXAEAU12@@Z
pdata	ENDS
;	COMDAT pdata
pdata	SEGMENT
$pdata$?_Release@_Basic_container_proxy_ptr12@std@@QEAAXXZ DD imagerel $LN3
	DD	imagerel $LN3+78
	DD	imagerel $unwind$?_Release@_Basic_container_proxy_ptr12@std@@QEAAXXZ
pdata	ENDS
;	COMDAT pdata
pdata	SEGMENT
$pdata$??0?$tuple@$$V@std@@QEAA@XZ DD imagerel $LN3
	DD	imagerel $LN3+71
	DD	imagerel $unwind$??0?$tuple@$$V@std@@QEAA@XZ
pdata	ENDS
;	COMDAT pdata
pdata	SEGMENT
$pdata$??0?$tuple@$$V@std@@QEAA@AEBV01@@Z DD imagerel $LN3
	DD	imagerel $LN3+76
	DD	imagerel $unwind$??0?$tuple@$$V@std@@QEAA@AEBV01@@Z
pdata	ENDS
;	COMDAT pdata
pdata	SEGMENT
$pdata$?length@?$_Narrow_char_traits@DH@std@@SA_KQEBD@Z DD imagerel $LN4
	DD	imagerel $LN4+123
	DD	imagerel $unwind$?length@?$_Narrow_char_traits@DH@std@@SA_KQEBD@Z
pdata	ENDS
;	COMDAT pdata
pdata	SEGMENT
$pdata$?copy@?$_Narrow_char_traits@DH@std@@SAPEADQEADQEBD_K@Z DD imagerel $LN3
	DD	imagerel $LN3+101
	DD	imagerel $unwind$?copy@?$_Narrow_char_traits@DH@std@@SAPEADQEADQEBD_K@Z
pdata	ENDS
;	COMDAT pdata
pdata	SEGMENT
$pdata$?move@?$_Narrow_char_traits@DH@std@@SAPEADQEADQEBD_K@Z DD imagerel $LN3
	DD	imagerel $LN3+101
	DD	imagerel $unwind$?move@?$_Narrow_char_traits@DH@std@@SAPEADQEADQEBD_K@Z
pdata	ENDS
;	COMDAT pdata
pdata	SEGMENT
$pdata$?assign@?$_Narrow_char_traits@DH@std@@SAXAEADAEBD@Z DD imagerel $LN3
	DD	imagerel $LN3+88
	DD	imagerel $unwind$?assign@?$_Narrow_char_traits@DH@std@@SAXAEADAEBD@Z
pdata	ENDS
;	COMDAT pdata
pdata	SEGMENT
$pdata$?to_int_type@?$_Narrow_char_traits@DH@std@@SAHAEBD@Z DD imagerel $LN3
	DD	imagerel $LN3+74
	DD	imagerel $unwind$?to_int_type@?$_Narrow_char_traits@DH@std@@SAHAEBD@Z
pdata	ENDS
;	COMDAT pdata
pdata	SEGMENT
$pdata$?eq_int_type@?$_Narrow_char_traits@DH@std@@SA_NAEBH0@Z DD imagerel $LN5
	DD	imagerel $LN5+118
	DD	imagerel $unwind$?eq_int_type@?$_Narrow_char_traits@DH@std@@SA_NAEBH0@Z
pdata	ENDS
;	COMDAT pdata
pdata	SEGMENT
$pdata$?eof@?$_Narrow_char_traits@DH@std@@SAHXZ DD imagerel $LN3
	DD	imagerel $LN3+57
	DD	imagerel $unwind$?eof@?$_Narrow_char_traits@DH@std@@SAHXZ
pdata	ENDS
;	COMDAT pdata
pdata	SEGMENT
$pdata$?_Xlen_string@std@@YAXXZ DD imagerel $LN3
	DD	imagerel $LN3+64
	DD	imagerel $unwind$?_Xlen_string@std@@YAXXZ
pdata	ENDS
;	COMDAT pdata
pdata	SEGMENT
$pdata$??0?$allocator@D@std@@QEAA@XZ DD imagerel $LN3
	DD	imagerel $LN3+71
	DD	imagerel $unwind$??0?$allocator@D@std@@QEAA@XZ
pdata	ENDS
;	COMDAT pdata
pdata	SEGMENT
$pdata$?deallocate@?$allocator@D@std@@QEAAXQEAD_K@Z DD imagerel $LN3
	DD	imagerel $LN3+93
	DD	imagerel $unwind$?deallocate@?$allocator@D@std@@QEAAXQEAD_K@Z
pdata	ENDS
;	COMDAT pdata
pdata	SEGMENT
$pdata$?allocate@?$allocator@D@std@@QEAAPEAD_K@Z DD imagerel $LN3
	DD	imagerel $LN3+89
	DD	imagerel $unwind$?allocate@?$allocator@D@std@@QEAAPEAD_K@Z
pdata	ENDS
;	COMDAT pdata
pdata	SEGMENT
$pdata$?max_size@?$_Default_allocator_traits@V?$allocator@D@std@@@std@@SA_KAEBV?$allocator@D@2@@Z DD imagerel $LN3
	DD	imagerel $LN3+71
	DD	imagerel $unwind$?max_size@?$_Default_allocator_traits@V?$allocator@D@std@@@std@@SA_KAEBV?$allocator@D@2@@Z
pdata	ENDS
;	COMDAT pdata
pdata	SEGMENT
$pdata$?select_on_container_copy_construction@?$_Default_allocator_traits@V?$allocator@D@std@@@std@@SA?AV?$allocator@D@2@AEBV32@@Z DD imagerel $LN3
	DD	imagerel $LN3+76
	DD	imagerel $unwind$?select_on_container_copy_construction@?$_Default_allocator_traits@V?$allocator@D@std@@@std@@SA?AV?$allocator@D@2@AEBV32@@Z
pdata	ENDS
;	COMDAT pdata
pdata	SEGMENT
$pdata$??0?$_String_val@U?$_Simple_types@D@std@@@std@@QEAA@XZ DD imagerel $LN4
	DD	imagerel $LN4+132
	DD	imagerel $unwind$??0?$_String_val@U?$_Simple_types@D@std@@@std@@QEAA@XZ
pdata	ENDS
;	COMDAT pdata
pdata	SEGMENT
$pdata$?_Myptr@?$_String_val@U?$_Simple_types@D@std@@@std@@QEAAPEADXZ DD imagerel $LN4
	DD	imagerel $LN4+122
	DD	imagerel $unwind$?_Myptr@?$_String_val@U?$_Simple_types@D@std@@@std@@QEAAPEADXZ
pdata	ENDS
;	COMDAT pdata
pdata	SEGMENT
$pdata$?_Myptr@?$_String_val@U?$_Simple_types@D@std@@@std@@QEBAPEBDXZ DD imagerel $LN4
	DD	imagerel $LN4+122
	DD	imagerel $unwind$?_Myptr@?$_String_val@U?$_Simple_types@D@std@@@std@@QEBAPEBDXZ
pdata	ENDS
;	COMDAT pdata
pdata	SEGMENT
$pdata$?_Large_string_engaged@?$_String_val@U?$_Simple_types@D@std@@@std@@QEBA_NXZ DD imagerel $LN5
	DD	imagerel $LN5+107
	DD	imagerel $unwind$?_Large_string_engaged@?$_String_val@U?$_Simple_types@D@std@@@std@@QEBA_NXZ
pdata	ENDS
;	COMDAT pdata
pdata	SEGMENT
$pdata$??0_Bxty@?$_String_val@U?$_Simple_types@D@std@@@std@@QEAA@XZ DD imagerel $LN3
	DD	imagerel $LN3+71
	DD	imagerel $unwind$??0_Bxty@?$_String_val@U?$_Simple_types@D@std@@@std@@QEAA@XZ
pdata	ENDS
;	COMDAT pdata
pdata	SEGMENT
$pdata$??1_Bxty@?$_String_val@U?$_Simple_types@D@std@@@std@@QEAA@XZ DD imagerel $LN3
	DD	imagerel $LN3+65
	DD	imagerel $unwind$??1_Bxty@?$_String_val@U?$_Simple_types@D@std@@@std@@QEAA@XZ
pdata	ENDS
;	COMDAT pdata
pdata	SEGMENT
$pdata$??1?$_String_val@U?$_Simple_types@D@std@@@std@@QEAA@XZ DD imagerel $LN3
	DD	imagerel $LN3+71
	DD	imagerel $unwind$??1?$_String_val@U?$_Simple_types@D@std@@@std@@QEAA@XZ
pdata	ENDS
;	COMDAT pdata
pdata	SEGMENT
$pdata$??0?$basic_string@DU?$char_traits@D@std@@V?$allocator@D@2@@std@@QEAA@AEBV01@@Z DD imagerel $LN5
	DD	imagerel $LN5+281
	DD	imagerel $unwind$??0?$basic_string@DU?$char_traits@D@std@@V?$allocator@D@2@@std@@QEAA@AEBV01@@Z
pdata	ENDS
;	COMDAT pdata
pdata	SEGMENT
$pdata$?dtor$0@?0???0?$basic_string@DU?$char_traits@D@std@@V?$allocator@D@2@@std@@QEAA@AEBV01@@Z@4HA DD imagerel ?dtor$0@?0???0?$basic_string@DU?$char_traits@D@std@@V?$allocator@D@2@@std@@QEAA@AEBV01@@Z@4HA
	DD	imagerel ?dtor$0@?0???0?$basic_string@DU?$char_traits@D@std@@V?$allocator@D@2@@std@@QEAA@AEBV01@@Z@4HA+39
	DD	imagerel $unwind$?dtor$0@?0???0?$basic_string@DU?$char_traits@D@std@@V?$allocator@D@2@@std@@QEAA@AEBV01@@Z@4HA
pdata	ENDS
;	COMDAT pdata
pdata	SEGMENT
$pdata$?dtor$1@?0???0?$basic_string@DU?$char_traits@D@std@@V?$allocator@D@2@@std@@QEAA@AEBV01@@Z@4HA DD imagerel ?dtor$1@?0???0?$basic_string@DU?$char_traits@D@std@@V?$allocator@D@2@@std@@QEAA@AEBV01@@Z@4HA
	DD	imagerel ?dtor$1@?0???0?$basic_string@DU?$char_traits@D@std@@V?$allocator@D@2@@std@@QEAA@AEBV01@@Z@4HA+36
	DD	imagerel $unwind$?dtor$1@?0???0?$basic_string@DU?$char_traits@D@std@@V?$allocator@D@2@@std@@QEAA@AEBV01@@Z@4HA
pdata	ENDS
;	COMDAT pdata
pdata	SEGMENT
$pdata$??0?$basic_string@DU?$char_traits@D@std@@V?$allocator@D@2@@std@@QEAA@QEBD_K@Z DD imagerel $LN5
	DD	imagerel $LN5+251
	DD	imagerel $unwind$??0?$basic_string@DU?$char_traits@D@std@@V?$allocator@D@2@@std@@QEAA@QEBD_K@Z
pdata	ENDS
;	COMDAT pdata
pdata	SEGMENT
$pdata$?dtor$0@?0???0?$basic_string@DU?$char_traits@D@std@@V?$allocator@D@2@@std@@QEAA@QEBD_K@Z@4HA DD imagerel ?dtor$0@?0???0?$basic_string@DU?$char_traits@D@std@@V?$allocator@D@2@@std@@QEAA@QEBD_K@Z@4HA
	DD	imagerel ?dtor$0@?0???0?$basic_string@DU?$char_traits@D@std@@V?$allocator@D@2@@std@@QEAA@QEBD_K@Z@4HA+39
	DD	imagerel $unwind$?dtor$0@?0???0?$basic_string@DU?$char_traits@D@std@@V?$allocator@D@2@@std@@QEAA@QEBD_K@Z@4HA
pdata	ENDS
;	COMDAT pdata
pdata	SEGMENT
$pdata$?dtor$1@?0???0?$basic_string@DU?$char_traits@D@std@@V?$allocator@D@2@@std@@QEAA@QEBD_K@Z@4HA DD imagerel ?dtor$1@?0???0?$basic_string@DU?$char_traits@D@std@@V?$allocator@D@2@@std@@QEAA@QEBD_K@Z@4HA
	DD	imagerel ?dtor$1@?0???0?$basic_string@DU?$char_traits@D@std@@V?$allocator@D@2@@std@@QEAA@QEBD_K@Z@4HA+36
	DD	imagerel $unwind$?dtor$1@?0???0?$basic_string@DU?$char_traits@D@std@@V?$allocator@D@2@@std@@QEAA@QEBD_K@Z@4HA
pdata	ENDS
;	COMDAT pdata
pdata	SEGMENT
$pdata$??0?$basic_string@DU?$char_traits@D@std@@V?$allocator@D@2@@std@@QEAA@QEBD@Z DD imagerel $LN5
	DD	imagerel $LN5+239
	DD	imagerel $unwind$??0?$basic_string@DU?$char_traits@D@std@@V?$allocator@D@2@@std@@QEAA@QEBD@Z
pdata	ENDS
;	COMDAT pdata
pdata	SEGMENT
$pdata$?dtor$0@?0???0?$basic_string@DU?$char_traits@D@std@@V?$allocator@D@2@@std@@QEAA@QEBD@Z@4HA DD imagerel ?dtor$0@?0???0?$basic_string@DU?$char_traits@D@std@@V?$allocator@D@2@@std@@QEAA@QEBD@Z@4HA
	DD	imagerel ?dtor$0@?0???0?$basic_string@DU?$char_traits@D@std@@V?$allocator@D@2@@std@@QEAA@QEBD@Z@4HA+39
	DD	imagerel $unwind$?dtor$0@?0???0?$basic_string@DU?$char_traits@D@std@@V?$allocator@D@2@@std@@QEAA@QEBD@Z@4HA
pdata	ENDS
;	COMDAT pdata
pdata	SEGMENT
$pdata$?dtor$1@?0???0?$basic_string@DU?$char_traits@D@std@@V?$allocator@D@2@@std@@QEAA@QEBD@Z@4HA DD imagerel ?dtor$1@?0???0?$basic_string@DU?$char_traits@D@std@@V?$allocator@D@2@@std@@QEAA@QEBD@Z@4HA
	DD	imagerel ?dtor$1@?0???0?$basic_string@DU?$char_traits@D@std@@V?$allocator@D@2@@std@@QEAA@QEBD@Z@4HA+36
	DD	imagerel $unwind$?dtor$1@?0???0?$basic_string@DU?$char_traits@D@std@@V?$allocator@D@2@@std@@QEAA@QEBD@Z@4HA
pdata	ENDS
;	COMDAT pdata
pdata	SEGMENT
$pdata$??0?$basic_string@DU?$char_traits@D@std@@V?$allocator@D@2@@std@@QEAA@$$QEAV01@@Z DD imagerel $LN3
	DD	imagerel $LN3+258
	DD	imagerel $unwind$??0?$basic_string@DU?$char_traits@D@std@@V?$allocator@D@2@@std@@QEAA@$$QEAV01@@Z
pdata	ENDS
;	COMDAT pdata
pdata	SEGMENT
$pdata$?_Memcpy_val_from@?$basic_string@DU?$char_traits@D@std@@V?$allocator@D@2@@std@@AEAAXAEBV12@@Z DD imagerel $LN3
	DD	imagerel $LN3+135
	DD	imagerel $unwind$?_Memcpy_val_from@?$basic_string@DU?$char_traits@D@std@@V?$allocator@D@2@@std@@AEAAXAEBV12@@Z
pdata	ENDS
;	COMDAT pdata
pdata	SEGMENT
$pdata$?_Take_contents@?$basic_string@DU?$char_traits@D@std@@V?$allocator@D@2@@std@@AEAAXAEAV12@U?$integral_constant@_N$00@2@@Z DD imagerel $LN5
	DD	imagerel $LN5+164
	DD	imagerel $unwind$?_Take_contents@?$basic_string@DU?$char_traits@D@std@@V?$allocator@D@2@@std@@AEAAXAEAV12@U?$integral_constant@_N$00@2@@Z
pdata	ENDS
;	COMDAT pdata
pdata	SEGMENT
$pdata$?_Construct_lv_contents@?$basic_string@DU?$char_traits@D@std@@V?$allocator@D@2@@std@@AEAAXAEBV12@@Z DD imagerel $LN4
	DD	imagerel $LN4+406
	DD	imagerel $unwind$?_Construct_lv_contents@?$basic_string@DU?$char_traits@D@std@@V?$allocator@D@2@@std@@AEAAXAEBV12@@Z
pdata	ENDS
;	COMDAT pdata
pdata	SEGMENT
$pdata$??1?$basic_string@DU?$char_traits@D@std@@V?$allocator@D@2@@std@@QEAA@XZ DD imagerel $LN3
	DD	imagerel $LN3+181
	DD	imagerel $unwind$??1?$basic_string@DU?$char_traits@D@std@@V?$allocator@D@2@@std@@QEAA@XZ
pdata	ENDS
;	COMDAT pdata
pdata	SEGMENT
$pdata$?append@?$basic_string@DU?$char_traits@D@std@@V?$allocator@D@2@@std@@QEAAAEAV12@AEBV12@@Z DD imagerel $LN3
	DD	imagerel $LN3+135
	DD	imagerel $unwind$?append@?$basic_string@DU?$char_traits@D@std@@V?$allocator@D@2@@std@@QEAAAEAV12@AEBV12@@Z
pdata	ENDS
;	COMDAT pdata
pdata	SEGMENT
$pdata$?append@?$basic_string@DU?$char_traits@D@std@@V?$allocator@D@2@@std@@QEAAAEAV12@QEBD_K@Z DD imagerel $LN4
	DD	imagerel $LN4+326
	DD	imagerel $unwind$?append@?$basic_string@DU?$char_traits@D@std@@V?$allocator@D@2@@std@@QEAAAEAV12@QEBD_K@Z
pdata	ENDS
;	COMDAT pdata
pdata	SEGMENT
$pdata$?append@?$basic_string@DU?$char_traits@D@std@@V?$allocator@D@2@@std@@QEAAAEAV12@QEBD@Z DD imagerel $LN3
	DD	imagerel $LN3+111
	DD	imagerel $unwind$?append@?$basic_string@DU?$char_traits@D@std@@V?$allocator@D@2@@std@@QEAAAEAV12@QEBD@Z
pdata	ENDS
;	COMDAT pdata
pdata	SEGMENT
$pdata$?assign@?$basic_string@DU?$char_traits@D@std@@V?$allocator@D@2@@std@@QEAAAEAV12@QEBD_K@Z DD imagerel $LN4
	DD	imagerel $LN4+255
	DD	imagerel $unwind$?assign@?$basic_string@DU?$char_traits@D@std@@V?$allocator@D@2@@std@@QEAAAEAV12@QEBD_K@Z
pdata	ENDS
;	COMDAT pdata
pdata	SEGMENT
$pdata$?assign@?$basic_string@DU?$char_traits@D@std@@V?$allocator@D@2@@std@@QEAAAEAV12@QEBD@Z DD imagerel $LN3
	DD	imagerel $LN3+111
	DD	imagerel $unwind$?assign@?$basic_string@DU?$char_traits@D@std@@V?$allocator@D@2@@std@@QEAAAEAV12@QEBD@Z
pdata	ENDS
;	COMDAT pdata
pdata	SEGMENT
$pdata$?c_str@?$basic_string@DU?$char_traits@D@std@@V?$allocator@D@2@@std@@QEBAPEBDXZ DD imagerel $LN3
	DD	imagerel $LN3+80
	DD	imagerel $unwind$?c_str@?$basic_string@DU?$char_traits@D@std@@V?$allocator@D@2@@std@@QEBAPEBDXZ
pdata	ENDS
;	COMDAT pdata
pdata	SEGMENT
$pdata$?size@?$basic_string@DU?$char_traits@D@std@@V?$allocator@D@2@@std@@QEBA_KXZ DD imagerel $LN3
	DD	imagerel $LN3+75
	DD	imagerel $unwind$?size@?$basic_string@DU?$char_traits@D@std@@V?$allocator@D@2@@std@@QEBA_KXZ
pdata	ENDS
;	COMDAT pdata
pdata	SEGMENT
$pdata$?max_size@?$basic_string@DU?$char_traits@D@std@@V?$allocator@D@2@@std@@QEBA_KXZ DD imagerel $LN3
	DD	imagerel $LN3+192
	DD	imagerel $unwind$?max_size@?$basic_string@DU?$char_traits@D@std@@V?$allocator@D@2@@std@@QEBA_KXZ
pdata	ENDS
;	COMDAT pdata
pdata	SEGMENT
$pdata$?empty@?$basic_string@DU?$char_traits@D@std@@V?$allocator@D@2@@std@@QEBA_NXZ DD imagerel $LN5
	DD	imagerel $LN5+110
	DD	imagerel $unwind$?empty@?$basic_string@DU?$char_traits@D@std@@V?$allocator@D@2@@std@@QEBA_NXZ
pdata	ENDS
;	COMDAT pdata
pdata	SEGMENT
$pdata$?_Calculate_growth@?$basic_string@DU?$char_traits@D@std@@V?$allocator@D@2@@std@@CA_K_K00@Z DD imagerel $LN5
	DD	imagerel $LN5+237
	DD	imagerel $unwind$?_Calculate_growth@?$basic_string@DU?$char_traits@D@std@@V?$allocator@D@2@@std@@CA_K_K00@Z
pdata	ENDS
;	COMDAT pdata
pdata	SEGMENT
$pdata$?_Calculate_growth@?$basic_string@DU?$char_traits@D@std@@V?$allocator@D@2@@std@@AEBA_K_K@Z DD imagerel $LN3
	DD	imagerel $LN3+133
	DD	imagerel $unwind$?_Calculate_growth@?$basic_string@DU?$char_traits@D@std@@V?$allocator@D@2@@std@@AEBA_K_K@Z
pdata	ENDS
;	COMDAT pdata
pdata	SEGMENT
$pdata$?_Tidy_init@?$basic_string@DU?$char_traits@D@std@@V?$allocator@D@2@@std@@AEAAXXZ DD imagerel $LN3
	DD	imagerel $LN3+138
	DD	imagerel $unwind$?_Tidy_init@?$basic_string@DU?$char_traits@D@std@@V?$allocator@D@2@@std@@AEAAXXZ
pdata	ENDS
;	COMDAT pdata
pdata	SEGMENT
$pdata$?_Tidy_deallocate@?$basic_string@DU?$char_traits@D@std@@V?$allocator@D@2@@std@@AEAAXXZ DD imagerel $LN4
	DD	imagerel $LN4+255
	DD	imagerel $unwind$?_Tidy_deallocate@?$basic_string@DU?$char_traits@D@std@@V?$allocator@D@2@@std@@AEAAXXZ
pdata	ENDS
;	COMDAT pdata
pdata	SEGMENT
$pdata$?_Swap_proxy_and_iterators@?$basic_string@DU?$char_traits@D@std@@V?$allocator@D@2@@std@@AEAAXAEAV12@@Z DD imagerel $LN3
	DD	imagerel $LN3+105
	DD	imagerel $unwind$?_Swap_proxy_and_iterators@?$basic_string@DU?$char_traits@D@std@@V?$allocator@D@2@@std@@AEAAXAEAV12@@Z
pdata	ENDS
;	COMDAT pdata
pdata	SEGMENT
$pdata$?_Getal@?$basic_string@DU?$char_traits@D@std@@V?$allocator@D@2@@std@@AEAAAEAV?$allocator@D@2@XZ DD imagerel $LN3
	DD	imagerel $LN3+80
	DD	imagerel $unwind$?_Getal@?$basic_string@DU?$char_traits@D@std@@V?$allocator@D@2@@std@@AEAAAEAV?$allocator@D@2@XZ
pdata	ENDS
;	COMDAT pdata
pdata	SEGMENT
$pdata$?_Getal@?$basic_string@DU?$char_traits@D@std@@V?$allocator@D@2@@std@@AEBAAEBV?$allocator@D@2@XZ DD imagerel $LN3
	DD	imagerel $LN3+80
	DD	imagerel $unwind$?_Getal@?$basic_string@DU?$char_traits@D@std@@V?$allocator@D@2@@std@@AEBAAEBV?$allocator@D@2@XZ
pdata	ENDS
;	COMDAT pdata
pdata	SEGMENT
$pdata$?_Get_first@?$_Compressed_pair@V?$allocator@D@std@@V?$_String_val@U?$_Simple_types@D@std@@@2@$00@std@@QEAAAEAV?$allocator@D@2@XZ DD imagerel $LN3
	DD	imagerel $LN3+71
	DD	imagerel $unwind$?_Get_first@?$_Compressed_pair@V?$allocator@D@std@@V?$_String_val@U?$_Simple_types@D@std@@@2@$00@std@@QEAAAEAV?$allocator@D@2@XZ
pdata	ENDS
;	COMDAT pdata
pdata	SEGMENT
$pdata$?_Get_first@?$_Compressed_pair@V?$allocator@D@std@@V?$_String_val@U?$_Simple_types@D@std@@@2@$00@std@@QEBAAEBV?$allocator@D@2@XZ DD imagerel $LN3
	DD	imagerel $LN3+71
	DD	imagerel $unwind$?_Get_first@?$_Compressed_pair@V?$allocator@D@std@@V?$_String_val@U?$_Simple_types@D@std@@@2@$00@std@@QEBAAEBV?$allocator@D@2@XZ
pdata	ENDS
;	COMDAT pdata
pdata	SEGMENT
$pdata$??1?$_Compressed_pair@V?$allocator@D@std@@V?$_String_val@U?$_Simple_types@D@std@@@2@$00@std@@QEAA@XZ DD imagerel $LN3
	DD	imagerel $LN3+67
	DD	imagerel $unwind$??1?$_Compressed_pair@V?$allocator@D@std@@V?$_String_val@U?$_Simple_types@D@std@@@2@$00@std@@QEAA@XZ
pdata	ENDS
;	COMDAT pdata
pdata	SEGMENT
$pdata$??0runtime_error@std@@QEAA@AEBV?$basic_string@DU?$char_traits@D@std@@V?$allocator@D@2@@1@@Z DD imagerel $LN4
	DD	imagerel $LN4+120
	DD	imagerel $unwind$??0runtime_error@std@@QEAA@AEBV?$basic_string@DU?$char_traits@D@std@@V?$allocator@D@2@@1@@Z
pdata	ENDS
;	COMDAT pdata
pdata	SEGMENT
$pdata$??1runtime_error@std@@UEAA@XZ DD imagerel $LN3
	DD	imagerel $LN3+64
	DD	imagerel $unwind$??1runtime_error@std@@UEAA@XZ
pdata	ENDS
;	COMDAT pdata
pdata	SEGMENT
$pdata$??0runtime_error@std@@QEAA@AEBV01@@Z DD imagerel $LN3
	DD	imagerel $LN3+100
	DD	imagerel $unwind$??0runtime_error@std@@QEAA@AEBV01@@Z
pdata	ENDS
;	COMDAT pdata
pdata	SEGMENT
$pdata$??_Gruntime_error@std@@UEAAPEAXI@Z DD imagerel $LN4
	DD	imagerel $LN4+105
	DD	imagerel $unwind$??_Gruntime_error@std@@UEAAPEAXI@Z
pdata	ENDS
;	COMDAT pdata
pdata	SEGMENT
$pdata$?_Load_barrier@std@@YAXW4memory_order@1@@Z DD imagerel $LN12
	DD	imagerel $LN12+235
	DD	imagerel $unwind$?_Load_barrier@std@@YAXW4memory_order@1@@Z
pdata	ENDS
;	COMDAT pdata
pdata	SEGMENT
$pdata$?make_error_code@std@@YA?AVerror_code@1@W4io_errc@1@@Z DD imagerel $LN3
	DD	imagerel $LN3+101
	DD	imagerel $unwind$?make_error_code@std@@YA?AVerror_code@1@W4io_errc@1@@Z
pdata	ENDS
;	COMDAT pdata
pdata	SEGMENT
$pdata$?iostream_category@std@@YAAEBVerror_category@1@XZ DD imagerel $LN3
	DD	imagerel $LN3+58
	DD	imagerel $unwind$?iostream_category@std@@YAAEBVerror_category@1@XZ
pdata	ENDS
;	COMDAT pdata
pdata	SEGMENT
$pdata$??1error_category@std@@UEAA@XZ DD imagerel $LN3
	DD	imagerel $LN3+65
	DD	imagerel $unwind$??1error_category@std@@UEAA@XZ
pdata	ENDS
;	COMDAT pdata
pdata	SEGMENT
$pdata$?default_error_condition@error_category@std@@UEBA?AVerror_condition@2@H@Z DD imagerel $LN3
	DD	imagerel $LN3+106
	DD	imagerel $unwind$?default_error_condition@error_category@std@@UEBA?AVerror_condition@2@H@Z
pdata	ENDS
;	COMDAT pdata
pdata	SEGMENT
$pdata$?equivalent@error_category@std@@UEBA_NHAEBVerror_condition@2@@Z DD imagerel $LN3
	DD	imagerel $LN3+137
	DD	imagerel $unwind$?equivalent@error_category@std@@UEBA_NHAEBVerror_condition@2@@Z
pdata	ENDS
;	COMDAT pdata
pdata	SEGMENT
$pdata$?equivalent@error_category@std@@UEBA_NAEBVerror_code@2@H@Z DD imagerel $LN5
	DD	imagerel $LN5+157
	DD	imagerel $unwind$?equivalent@error_category@std@@UEBA_NAEBVerror_code@2@H@Z
pdata	ENDS
;	COMDAT pdata
pdata	SEGMENT
$pdata$??8error_category@std@@QEBA_NAEBV01@@Z DD imagerel $LN5
	DD	imagerel $LN5+122
	DD	imagerel $unwind$??8error_category@std@@QEBA_NAEBV01@@Z
pdata	ENDS
;	COMDAT pdata
pdata	SEGMENT
$pdata$??0error_category@std@@IEAA@_K@Z DD imagerel $LN3
	DD	imagerel $LN3+94
	DD	imagerel $unwind$??0error_category@std@@IEAA@_K@Z
pdata	ENDS
;	COMDAT pdata
pdata	SEGMENT
$pdata$??0error_code@std@@QEAA@HAEBVerror_category@1@@Z DD imagerel $LN3
	DD	imagerel $LN3+113
	DD	imagerel $unwind$??0error_code@std@@QEAA@HAEBVerror_category@1@@Z
pdata	ENDS
;	COMDAT pdata
pdata	SEGMENT
$pdata$?value@error_code@std@@QEBAHXZ DD imagerel $LN3
	DD	imagerel $LN3+73
	DD	imagerel $unwind$?value@error_code@std@@QEBAHXZ
pdata	ENDS
;	COMDAT pdata
pdata	SEGMENT
$pdata$?category@error_code@std@@QEBAAEBVerror_category@2@XZ DD imagerel $LN3
	DD	imagerel $LN3+75
	DD	imagerel $unwind$?category@error_code@std@@QEBAAEBVerror_category@2@XZ
pdata	ENDS
;	COMDAT pdata
pdata	SEGMENT
$pdata$?message@error_code@std@@QEBA?AV?$basic_string@DU?$char_traits@D@std@@V?$allocator@D@2@@2@XZ DD imagerel $LN5
	DD	imagerel $LN5+186
	DD	imagerel $unwind$?message@error_code@std@@QEBA?AV?$basic_string@DU?$char_traits@D@std@@V?$allocator@D@2@@2@XZ
pdata	ENDS
;	COMDAT pdata
pdata	SEGMENT
$pdata$??0error_condition@std@@QEAA@HAEBVerror_category@1@@Z DD imagerel $LN3
	DD	imagerel $LN3+113
	DD	imagerel $unwind$??0error_condition@std@@QEAA@HAEBVerror_category@1@@Z
pdata	ENDS
;	COMDAT pdata
pdata	SEGMENT
$pdata$?value@error_condition@std@@QEBAHXZ DD imagerel $LN3
	DD	imagerel $LN3+73
	DD	imagerel $unwind$?value@error_condition@std@@QEBAHXZ
pdata	ENDS
;	COMDAT pdata
pdata	SEGMENT
$pdata$?category@error_condition@std@@QEBAAEBVerror_category@2@XZ DD imagerel $LN3
	DD	imagerel $LN3+75
	DD	imagerel $unwind$?category@error_condition@std@@QEBAAEBVerror_category@2@XZ
pdata	ENDS
;	COMDAT pdata
pdata	SEGMENT
$pdata$??8std@@YA_NAEBVerror_condition@0@0@Z DD imagerel $LN5
	DD	imagerel $LN5+202
	DD	imagerel $unwind$??8std@@YA_NAEBVerror_condition@0@0@Z
pdata	ENDS
;	COMDAT pdata
pdata	SEGMENT
$pdata$?_Makestr@_System_error@std@@CA?AV?$basic_string@DU?$char_traits@D@std@@V?$allocator@D@2@@2@Verror_code@2@V32@@Z DD imagerel $LN8
	DD	imagerel $LN8+293
	DD	imagerel $unwind$?_Makestr@_System_error@std@@CA?AV?$basic_string@DU?$char_traits@D@std@@V?$allocator@D@2@@2@Verror_code@2@V32@@Z
pdata	ENDS
;	COMDAT pdata
pdata	SEGMENT
$pdata$?dtor$0@?0??_Makestr@_System_error@std@@CA?AV?$basic_string@DU?$char_traits@D@std@@V?$allocator@D@2@@2@Verror_code@2@V32@@Z@4HA DD imagerel ?dtor$0@?0??_Makestr@_System_error@std@@CA?AV?$basic_string@DU?$char_traits@D@std@@V?$allocator@D@2@@2@Verror_code@2@V32@@Z@4HA
	DD	imagerel ?dtor$0@?0??_Makestr@_System_error@std@@CA?AV?$basic_string@DU?$char_traits@D@std@@V?$allocator@D@2@@2@Verror_code@2@V32@@Z@4HA+39
	DD	imagerel $unwind$?dtor$0@?0??_Makestr@_System_error@std@@CA?AV?$basic_string@DU?$char_traits@D@std@@V?$allocator@D@2@@2@Verror_code@2@V32@@Z@4HA
pdata	ENDS
;	COMDAT pdata
pdata	SEGMENT
$pdata$?dtor$1@?0??_Makestr@_System_error@std@@CA?AV?$basic_string@DU?$char_traits@D@std@@V?$allocator@D@2@@2@Verror_code@2@V32@@Z@4HA DD imagerel ?dtor$1@?0??_Makestr@_System_error@std@@CA?AV?$basic_string@DU?$char_traits@D@std@@V?$allocator@D@2@@2@Verror_code@2@V32@@Z@4HA
	DD	imagerel ?dtor$1@?0??_Makestr@_System_error@std@@CA?AV?$basic_string@DU?$char_traits@D@std@@V?$allocator@D@2@@2@Verror_code@2@V32@@Z@4HA+39
	DD	imagerel $unwind$?dtor$1@?0??_Makestr@_System_error@std@@CA?AV?$basic_string@DU?$char_traits@D@std@@V?$allocator@D@2@@2@Verror_code@2@V32@@Z@4HA
pdata	ENDS
;	COMDAT pdata
pdata	SEGMENT
$pdata$??0_System_error@std@@IEAA@Verror_code@1@AEBV?$basic_string@DU?$char_traits@D@std@@V?$allocator@D@2@@1@@Z DD imagerel $LN6
	DD	imagerel $LN6+341
	DD	imagerel $unwind$??0_System_error@std@@IEAA@Verror_code@1@AEBV?$basic_string@DU?$char_traits@D@std@@V?$allocator@D@2@@1@@Z
pdata	ENDS
;	COMDAT pdata
pdata	SEGMENT
$pdata$?dtor$1@?0???0_System_error@std@@IEAA@Verror_code@1@AEBV?$basic_string@DU?$char_traits@D@std@@V?$allocator@D@2@@1@@Z@4HA DD imagerel ?dtor$1@?0???0_System_error@std@@IEAA@Verror_code@1@AEBV?$basic_string@DU?$char_traits@D@std@@V?$allocator@D@2@@1@@Z@4HA
	DD	imagerel ?dtor$1@?0???0_System_error@std@@IEAA@Verror_code@1@AEBV?$basic_string@DU?$char_traits@D@std@@V?$allocator@D@2@@1@@Z@4HA+39
	DD	imagerel $unwind$?dtor$1@?0???0_System_error@std@@IEAA@Verror_code@1@AEBV?$basic_string@DU?$char_traits@D@std@@V?$allocator@D@2@@1@@Z@4HA
pdata	ENDS
;	COMDAT pdata
pdata	SEGMENT
$pdata$??1_System_error@std@@UEAA@XZ DD imagerel $LN3
	DD	imagerel $LN3+64
	DD	imagerel $unwind$??1_System_error@std@@UEAA@XZ
pdata	ENDS
;	COMDAT pdata
pdata	SEGMENT
$pdata$??0_System_error@std@@QEAA@AEBV01@@Z DD imagerel $LN3
	DD	imagerel $LN3+131
	DD	imagerel $unwind$??0_System_error@std@@QEAA@AEBV01@@Z
pdata	ENDS
;	COMDAT pdata
pdata	SEGMENT
$pdata$??_G_System_error@std@@UEAAPEAXI@Z DD imagerel $LN4
	DD	imagerel $LN4+105
	DD	imagerel $unwind$??_G_System_error@std@@UEAAPEAXI@Z
pdata	ENDS
;	COMDAT pdata
pdata	SEGMENT
$pdata$??0system_error@std@@QEAA@Verror_code@1@PEBD@Z DD imagerel $LN5
	DD	imagerel $LN5+215
	DD	imagerel $unwind$??0system_error@std@@QEAA@Verror_code@1@PEBD@Z
pdata	ENDS
;	COMDAT pdata
pdata	SEGMENT
$pdata$?dtor$0@?0???0system_error@std@@QEAA@Verror_code@1@PEBD@Z@4HA DD imagerel ?dtor$0@?0???0system_error@std@@QEAA@Verror_code@1@PEBD@Z@4HA
	DD	imagerel ?dtor$0@?0???0system_error@std@@QEAA@Verror_code@1@PEBD@Z@4HA+39
	DD	imagerel $unwind$?dtor$0@?0???0system_error@std@@QEAA@Verror_code@1@PEBD@Z@4HA
pdata	ENDS
;	COMDAT pdata
pdata	SEGMENT
$pdata$??1system_error@std@@UEAA@XZ DD imagerel $LN3
	DD	imagerel $LN3+64
	DD	imagerel $unwind$??1system_error@std@@UEAA@XZ
pdata	ENDS
;	COMDAT pdata
pdata	SEGMENT
$pdata$??0system_error@std@@QEAA@AEBV01@@Z DD imagerel $LN3
	DD	imagerel $LN3+100
	DD	imagerel $unwind$??0system_error@std@@QEAA@AEBV01@@Z
pdata	ENDS
;	COMDAT pdata
pdata	SEGMENT
$pdata$??_Gsystem_error@std@@UEAAPEAXI@Z DD imagerel $LN4
	DD	imagerel $LN4+105
	DD	imagerel $unwind$??_Gsystem_error@std@@UEAAPEAXI@Z
pdata	ENDS
;	COMDAT pdata
pdata	SEGMENT
$pdata$??0_Iostream_error_category2@std@@QEAA@XZ DD imagerel $LN3
	DD	imagerel $LN3+105
	DD	imagerel $unwind$??0_Iostream_error_category2@std@@QEAA@XZ
pdata	ENDS
;	COMDAT pdata
pdata	SEGMENT
$pdata$?name@_Iostream_error_category2@std@@UEBAPEBDXZ DD imagerel $LN3
	DD	imagerel $LN3+71
	DD	imagerel $unwind$?name@_Iostream_error_category2@std@@UEBAPEBDXZ
pdata	ENDS
;	COMDAT pdata
pdata	SEGMENT
$pdata$?message@_Iostream_error_category2@std@@UEBA?AV?$basic_string@DU?$char_traits@D@std@@V?$allocator@D@2@@2@H@Z DD imagerel $LN7
	DD	imagerel $LN7+200
	DD	imagerel $unwind$?message@_Iostream_error_category2@std@@UEBA?AV?$basic_string@DU?$char_traits@D@std@@V?$allocator@D@2@@2@H@Z
pdata	ENDS
;	COMDAT pdata
pdata	SEGMENT
$pdata$??1_Iostream_error_category2@std@@UEAA@XZ DD imagerel $LN3
	DD	imagerel $LN3+64
	DD	imagerel $unwind$??1_Iostream_error_category2@std@@UEAA@XZ
pdata	ENDS
;	COMDAT pdata
pdata	SEGMENT
$pdata$??_G_Iostream_error_category2@std@@UEAAPEAXI@Z DD imagerel $LN4
	DD	imagerel $LN4+105
	DD	imagerel $unwind$??_G_Iostream_error_category2@std@@UEAAPEAXI@Z
pdata	ENDS
;	COMDAT pdata
pdata	SEGMENT
$pdata$??$_Immortalize_memcpy_image@V_Iostream_error_category2@std@@@std@@YAAEBV_Iostream_error_category2@0@XZ DD imagerel $LN4
	DD	imagerel $LN4+294
	DD	imagerel $unwind$??$_Immortalize_memcpy_image@V_Iostream_error_category2@std@@@std@@YAAEBV_Iostream_error_category2@0@XZ
pdata	ENDS
;	COMDAT pdata
pdata	SEGMENT
$pdata$??0bad_cast@std@@QEAA@XZ DD imagerel $LN3
	DD	imagerel $LN3+113
	DD	imagerel $unwind$??0bad_cast@std@@QEAA@XZ
pdata	ENDS
;	COMDAT pdata
pdata	SEGMENT
$pdata$??1bad_cast@std@@UEAA@XZ DD imagerel $LN3
	DD	imagerel $LN3+64
	DD	imagerel $unwind$??1bad_cast@std@@UEAA@XZ
pdata	ENDS
;	COMDAT pdata
pdata	SEGMENT
$pdata$??0bad_cast@std@@QEAA@AEBV01@@Z DD imagerel $LN3
	DD	imagerel $LN3+100
	DD	imagerel $unwind$??0bad_cast@std@@QEAA@AEBV01@@Z
pdata	ENDS
;	COMDAT pdata
pdata	SEGMENT
$pdata$??_Gbad_cast@std@@UEAAPEAXI@Z DD imagerel $LN4
	DD	imagerel $LN4+105
	DD	imagerel $unwind$??_Gbad_cast@std@@UEAAPEAXI@Z
pdata	ENDS
;	COMDAT pdata
pdata	SEGMENT
$pdata$?_Throw_bad_cast@std@@YAXXZ DD imagerel $LN3
	DD	imagerel $LN3+83
	DD	imagerel $unwind$?_Throw_bad_cast@std@@YAXXZ
pdata	ENDS
;	COMDAT pdata
pdata	SEGMENT
$pdata$??1_Facet_base@std@@UEAA@XZ DD imagerel $LN3
	DD	imagerel $LN3+81
	DD	imagerel $unwind$??1_Facet_base@std@@UEAA@XZ
pdata	ENDS
;	COMDAT pdata
pdata	SEGMENT
$pdata$??0_Facet_base@std@@QEAA@XZ DD imagerel $LN3
	DD	imagerel $LN3+74
	DD	imagerel $unwind$??0_Facet_base@std@@QEAA@XZ
pdata	ENDS
;	COMDAT pdata
pdata	SEGMENT
$pdata$??_G_Facet_base@std@@UEAAPEAXI@Z DD imagerel $LN4
	DD	imagerel $LN4+105
	DD	imagerel $unwind$??_G_Facet_base@std@@UEAAPEAXI@Z
pdata	ENDS
;	COMDAT pdata
pdata	SEGMENT
$pdata$??0_Locinfo@std@@QEAA@PEBD@Z DD imagerel $LN12
	DD	imagerel $LN12+269
	DD	imagerel $unwind$??0_Locinfo@std@@QEAA@PEBD@Z
pdata	ENDS
;	COMDAT pdata
pdata	SEGMENT
$pdata$?dtor$0@?0???0_Locinfo@std@@QEAA@PEBD@Z@4HA DD imagerel ?dtor$0@?0???0_Locinfo@std@@QEAA@PEBD@Z@4HA
	DD	imagerel ?dtor$0@?0???0_Locinfo@std@@QEAA@PEBD@Z@4HA+39
	DD	imagerel $unwind$?dtor$0@?0???0_Locinfo@std@@QEAA@PEBD@Z@4HA
pdata	ENDS
;	COMDAT pdata
pdata	SEGMENT
$pdata$?dtor$1@?0???0_Locinfo@std@@QEAA@PEBD@Z@4HA DD imagerel ?dtor$1@?0???0_Locinfo@std@@QEAA@PEBD@Z@4HA
	DD	imagerel ?dtor$1@?0???0_Locinfo@std@@QEAA@PEBD@Z@4HA+43
	DD	imagerel $unwind$?dtor$1@?0???0_Locinfo@std@@QEAA@PEBD@Z@4HA
pdata	ENDS
;	COMDAT pdata
pdata	SEGMENT
$pdata$?dtor$2@?0???0_Locinfo@std@@QEAA@PEBD@Z@4HA DD imagerel ?dtor$2@?0???0_Locinfo@std@@QEAA@PEBD@Z@4HA
	DD	imagerel ?dtor$2@?0???0_Locinfo@std@@QEAA@PEBD@Z@4HA+43
	DD	imagerel $unwind$?dtor$2@?0???0_Locinfo@std@@QEAA@PEBD@Z@4HA
pdata	ENDS
;	COMDAT pdata
pdata	SEGMENT
$pdata$?dtor$3@?0???0_Locinfo@std@@QEAA@PEBD@Z@4HA DD imagerel ?dtor$3@?0???0_Locinfo@std@@QEAA@PEBD@Z@4HA
	DD	imagerel ?dtor$3@?0???0_Locinfo@std@@QEAA@PEBD@Z@4HA+43
	DD	imagerel $unwind$?dtor$3@?0???0_Locinfo@std@@QEAA@PEBD@Z@4HA
pdata	ENDS
;	COMDAT pdata
pdata	SEGMENT
$pdata$?dtor$4@?0???0_Locinfo@std@@QEAA@PEBD@Z@4HA DD imagerel ?dtor$4@?0???0_Locinfo@std@@QEAA@PEBD@Z@4HA
	DD	imagerel ?dtor$4@?0???0_Locinfo@std@@QEAA@PEBD@Z@4HA+43
	DD	imagerel $unwind$?dtor$4@?0???0_Locinfo@std@@QEAA@PEBD@Z@4HA
pdata	ENDS
;	COMDAT pdata
pdata	SEGMENT
$pdata$?dtor$5@?0???0_Locinfo@std@@QEAA@PEBD@Z@4HA DD imagerel ?dtor$5@?0???0_Locinfo@std@@QEAA@PEBD@Z@4HA
	DD	imagerel ?dtor$5@?0???0_Locinfo@std@@QEAA@PEBD@Z@4HA+43
	DD	imagerel $unwind$?dtor$5@?0???0_Locinfo@std@@QEAA@PEBD@Z@4HA
pdata	ENDS
;	COMDAT pdata
pdata	SEGMENT
$pdata$?dtor$6@?0???0_Locinfo@std@@QEAA@PEBD@Z@4HA DD imagerel ?dtor$6@?0???0_Locinfo@std@@QEAA@PEBD@Z@4HA
	DD	imagerel ?dtor$6@?0???0_Locinfo@std@@QEAA@PEBD@Z@4HA+43
	DD	imagerel $unwind$?dtor$6@?0???0_Locinfo@std@@QEAA@PEBD@Z@4HA
pdata	ENDS
;	COMDAT pdata
pdata	SEGMENT
$pdata$??1_Locinfo@std@@QEAA@XZ DD imagerel $LN3
	DD	imagerel $LN3+206
	DD	imagerel $unwind$??1_Locinfo@std@@QEAA@XZ
pdata	ENDS
;	COMDAT pdata
pdata	SEGMENT
$pdata$?_Getctype@_Locinfo@std@@QEBA?AU_Ctypevec@@XZ DD imagerel $LN3
	DD	imagerel $LN3+134
	DD	imagerel $unwind$?_Getctype@_Locinfo@std@@QEBA?AU_Ctypevec@@XZ
pdata	ENDS
;	COMDAT pdata
pdata	SEGMENT
$pdata$??0?$_Yarn@D@std@@QEAA@XZ DD imagerel $LN3
	DD	imagerel $LN3+96
	DD	imagerel $unwind$??0?$_Yarn@D@std@@QEAA@XZ
pdata	ENDS
;	COMDAT pdata
pdata	SEGMENT
$pdata$??1?$_Yarn@D@std@@QEAA@XZ DD imagerel $LN3
	DD	imagerel $LN3+77
	DD	imagerel $unwind$??1?$_Yarn@D@std@@QEAA@XZ
pdata	ENDS
;	COMDAT pdata
pdata	SEGMENT
$pdata$?c_str@?$_Yarn@D@std@@QEBAPEBDXZ DD imagerel $LN5
	DD	imagerel $LN5+121
	DD	imagerel $unwind$?c_str@?$_Yarn@D@std@@QEBAPEBDXZ
pdata	ENDS
;	COMDAT pdata
pdata	SEGMENT
$pdata$?_Tidy@?$_Yarn@D@std@@AEAAXXZ DD imagerel $LN4
	DD	imagerel $LN4+111
	DD	imagerel $unwind$?_Tidy@?$_Yarn@D@std@@AEAAXXZ
pdata	ENDS
;	COMDAT pdata
pdata	SEGMENT
$pdata$??0?$_Yarn@_W@std@@QEAA@XZ DD imagerel $LN3
	DD	imagerel $LN3+98
	DD	imagerel $unwind$??0?$_Yarn@_W@std@@QEAA@XZ
pdata	ENDS
;	COMDAT pdata
pdata	SEGMENT
$pdata$??1?$_Yarn@_W@std@@QEAA@XZ DD imagerel $LN3
	DD	imagerel $LN3+77
	DD	imagerel $unwind$??1?$_Yarn@_W@std@@QEAA@XZ
pdata	ENDS
;	COMDAT pdata
pdata	SEGMENT
$pdata$?_Tidy@?$_Yarn@_W@std@@AEAAXXZ DD imagerel $LN4
	DD	imagerel $LN4+111
	DD	imagerel $unwind$?_Tidy@?$_Yarn@_W@std@@AEAAXXZ
pdata	ENDS
;	COMDAT pdata
pdata	SEGMENT
$pdata$??2_Crt_new_delete@std@@SAPEAX_K@Z DD imagerel $LN4
	DD	imagerel $LN4+103
	DD	imagerel $unwind$??2_Crt_new_delete@std@@SAPEAX_K@Z
pdata	ENDS
;	COMDAT pdata
pdata	SEGMENT
$pdata$??2_Crt_new_delete@std@@SAPEAX_KAEBUnothrow_t@1@@Z DD imagerel $LN5
	DD	imagerel $LN5+137
	DD	imagerel $unwind$??2_Crt_new_delete@std@@SAPEAX_KAEBUnothrow_t@1@@Z
pdata	ENDS
;	COMDAT pdata
pdata	SEGMENT
$pdata$??3_Crt_new_delete@std@@SAXPEAX@Z DD imagerel $LN3
	DD	imagerel $LN3+77
	DD	imagerel $unwind$??3_Crt_new_delete@std@@SAXPEAX@Z
pdata	ENDS
;	COMDAT pdata
pdata	SEGMENT
$pdata$??Bid@locale@std@@QEAA_KXZ DD imagerel $LN6
	DD	imagerel $LN6+173
	DD	imagerel $unwind$??Bid@locale@std@@QEAA_KXZ
pdata	ENDS
;	COMDAT pdata
pdata	SEGMENT
$pdata$?_Incref@facet@locale@std@@UEAAXXZ DD imagerel $LN3
	DD	imagerel $LN3+78
	DD	imagerel $unwind$?_Incref@facet@locale@std@@UEAAXXZ
pdata	ENDS
;	COMDAT pdata
pdata	SEGMENT
$pdata$?_Decref@facet@locale@std@@UEAAPEAV_Facet_base@3@XZ DD imagerel $LN4
	DD	imagerel $LN4+103
	DD	imagerel $unwind$?_Decref@facet@locale@std@@UEAAPEAV_Facet_base@3@XZ
pdata	ENDS
;	COMDAT pdata
pdata	SEGMENT
$pdata$??0facet@locale@std@@IEAA@_K@Z DD imagerel $LN4
	DD	imagerel $LN4+121
	DD	imagerel $unwind$??0facet@locale@std@@IEAA@_K@Z
pdata	ENDS
;	COMDAT pdata
pdata	SEGMENT
$pdata$??1facet@locale@std@@MEAA@XZ DD imagerel $LN3
	DD	imagerel $LN3+94
	DD	imagerel $unwind$??1facet@locale@std@@MEAA@XZ
pdata	ENDS
;	COMDAT pdata
pdata	SEGMENT
$pdata$??_Gfacet@locale@std@@MEAAPEAXI@Z DD imagerel $LN7
	DD	imagerel $LN7+132
	DD	imagerel $unwind$??_Gfacet@locale@std@@MEAAPEAXI@Z
pdata	ENDS
;	COMDAT pdata
pdata	SEGMENT
$pdata$??0locale@std@@QEAA@AEBV01@@Z DD imagerel $LN3
	DD	imagerel $LN3+126
	DD	imagerel $unwind$??0locale@std@@QEAA@AEBV01@@Z
pdata	ENDS
;	COMDAT pdata
pdata	SEGMENT
$pdata$??1locale@std@@QEAA@XZ DD imagerel $LN6
	DD	imagerel $LN6+181
	DD	imagerel $unwind$??1locale@std@@QEAA@XZ
pdata	ENDS
;	COMDAT pdata
pdata	SEGMENT
$pdata$?c_str@locale@std@@QEBAPEBDXZ DD imagerel $LN5
	DD	imagerel $LN5+131
	DD	imagerel $unwind$?c_str@locale@std@@QEBAPEBDXZ
pdata	ENDS
;	COMDAT pdata
pdata	SEGMENT
$pdata$?_Getfacet@locale@std@@QEBAPEBVfacet@12@_K@Z DD imagerel $LN8
	DD	imagerel $LN8+231
	DD	imagerel $unwind$?_Getfacet@locale@std@@QEBAPEBVfacet@12@_K@Z
pdata	ENDS
;	COMDAT pdata
pdata	SEGMENT
$pdata$??$_Adl_verify_range@PEBDPEBD@std@@YAXAEBQEBD0@Z DD imagerel $LN3
	DD	imagerel $LN3+94
	DD	imagerel $unwind$??$_Adl_verify_range@PEBDPEBD@std@@YAXAEBQEBD0@Z
pdata	ENDS
;	COMDAT pdata
pdata	SEGMENT
$pdata$??0ctype_base@std@@QEAA@_K@Z DD imagerel $LN4
	DD	imagerel $LN4+112
	DD	imagerel $unwind$??0ctype_base@std@@QEAA@_K@Z
pdata	ENDS
;	COMDAT pdata
pdata	SEGMENT
$pdata$??1ctype_base@std@@UEAA@XZ DD imagerel $LN3
	DD	imagerel $LN3+94
	DD	imagerel $unwind$??1ctype_base@std@@UEAA@XZ
pdata	ENDS
;	COMDAT pdata
pdata	SEGMENT
$pdata$??_Gctype_base@std@@UEAAPEAXI@Z DD imagerel $LN7
	DD	imagerel $LN7+132
	DD	imagerel $unwind$??_Gctype_base@std@@UEAAPEAXI@Z
pdata	ENDS
;	COMDAT pdata
pdata	SEGMENT
$pdata$?widen@?$ctype@D@std@@QEBADD@Z DD imagerel $LN3
	DD	imagerel $LN3+109
	DD	imagerel $unwind$?widen@?$ctype@D@std@@QEBADD@Z
pdata	ENDS
;	COMDAT pdata
pdata	SEGMENT
$pdata$??0?$ctype@D@std@@QEAA@AEBV_Locinfo@1@_K@Z DD imagerel $LN4
	DD	imagerel $LN4+138
	DD	imagerel $unwind$??0?$ctype@D@std@@QEAA@AEBV_Locinfo@1@_K@Z
pdata	ENDS
;	COMDAT pdata
pdata	SEGMENT
$pdata$?dtor$0@?0???0?$ctype@D@std@@QEAA@AEBV_Locinfo@1@_K@Z@4HA DD imagerel ?dtor$0@?0???0?$ctype@D@std@@QEAA@AEBV_Locinfo@1@_K@Z@4HA
	DD	imagerel ?dtor$0@?0???0?$ctype@D@std@@QEAA@AEBV_Locinfo@1@_K@Z@4HA+39
	DD	imagerel $unwind$?dtor$0@?0???0?$ctype@D@std@@QEAA@AEBV_Locinfo@1@_K@Z@4HA
pdata	ENDS
;	COMDAT pdata
pdata	SEGMENT
$pdata$?_Getcat@?$ctype@D@std@@SA_KPEAPEBVfacet@locale@2@PEBV42@@Z DD imagerel $LN10
	DD	imagerel $LN10+324
	DD	imagerel $unwind$?_Getcat@?$ctype@D@std@@SA_KPEAPEBVfacet@locale@2@PEBV42@@Z
pdata	ENDS
;	COMDAT pdata
pdata	SEGMENT
$pdata$?dtor$0@?0??_Getcat@?$ctype@D@std@@SA_KPEAPEBVfacet@locale@2@PEBV42@@Z@4HA DD imagerel ?dtor$0@?0??_Getcat@?$ctype@D@std@@SA_KPEAPEBVfacet@locale@2@PEBV42@@Z@4HA
	DD	imagerel ?dtor$0@?0??_Getcat@?$ctype@D@std@@SA_KPEAPEBVfacet@locale@2@PEBV42@@Z@4HA+39
	DD	imagerel $unwind$?dtor$0@?0??_Getcat@?$ctype@D@std@@SA_KPEAPEBVfacet@locale@2@PEBV42@@Z@4HA
pdata	ENDS
;	COMDAT pdata
pdata	SEGMENT
$pdata$?dtor$1@?0??_Getcat@?$ctype@D@std@@SA_KPEAPEBVfacet@locale@2@PEBV42@@Z@4HA DD imagerel ?dtor$1@?0??_Getcat@?$ctype@D@std@@SA_KPEAPEBVfacet@locale@2@PEBV42@@Z@4HA
	DD	imagerel ?dtor$1@?0??_Getcat@?$ctype@D@std@@SA_KPEAPEBVfacet@locale@2@PEBV42@@Z@4HA+59
	DD	imagerel $unwind$?dtor$1@?0??_Getcat@?$ctype@D@std@@SA_KPEAPEBVfacet@locale@2@PEBV42@@Z@4HA
pdata	ENDS
;	COMDAT pdata
pdata	SEGMENT
$pdata$??1?$ctype@D@std@@MEAA@XZ DD imagerel $LN3
	DD	imagerel $LN3+106
	DD	imagerel $unwind$??1?$ctype@D@std@@MEAA@XZ
pdata	ENDS
;	COMDAT pdata
pdata	SEGMENT
$pdata$?_Init@?$ctype@D@std@@IEAAXAEBV_Locinfo@2@@Z DD imagerel $LN3
	DD	imagerel $LN3+111
	DD	imagerel $unwind$?_Init@?$ctype@D@std@@IEAAXAEBV_Locinfo@2@@Z
pdata	ENDS
;	COMDAT pdata
pdata	SEGMENT
$pdata$?_Tidy@?$ctype@D@std@@IEAAXXZ DD imagerel $LN6
	DD	imagerel $LN6+155
	DD	imagerel $unwind$?_Tidy@?$ctype@D@std@@IEAAXXZ
pdata	ENDS
;	COMDAT pdata
pdata	SEGMENT
$pdata$?do_tolower@?$ctype@D@std@@MEBADD@Z DD imagerel $LN3
	DD	imagerel $LN3+94
	DD	imagerel $unwind$?do_tolower@?$ctype@D@std@@MEBADD@Z
pdata	ENDS
;	COMDAT pdata
pdata	SEGMENT
$pdata$?do_tolower@?$ctype@D@std@@MEBAPEBDPEADPEBD@Z DD imagerel $LN6
	DD	imagerel $LN6+175
	DD	imagerel $unwind$?do_tolower@?$ctype@D@std@@MEBAPEBDPEADPEBD@Z
pdata	ENDS
;	COMDAT pdata
pdata	SEGMENT
$pdata$?do_toupper@?$ctype@D@std@@MEBADD@Z DD imagerel $LN3
	DD	imagerel $LN3+94
	DD	imagerel $unwind$?do_toupper@?$ctype@D@std@@MEBADD@Z
pdata	ENDS
;	COMDAT pdata
pdata	SEGMENT
$pdata$?do_toupper@?$ctype@D@std@@MEBAPEBDPEADPEBD@Z DD imagerel $LN6
	DD	imagerel $LN6+175
	DD	imagerel $unwind$?do_toupper@?$ctype@D@std@@MEBAPEBDPEADPEBD@Z
pdata	ENDS
;	COMDAT pdata
pdata	SEGMENT
$pdata$?do_widen@?$ctype@D@std@@MEBADD@Z DD imagerel $LN3
	DD	imagerel $LN3+75
	DD	imagerel $unwind$?do_widen@?$ctype@D@std@@MEBADD@Z
pdata	ENDS
;	COMDAT pdata
pdata	SEGMENT
$pdata$?do_widen@?$ctype@D@std@@MEBAPEBDPEBD0PEAD@Z DD imagerel $LN3
	DD	imagerel $LN3+147
	DD	imagerel $unwind$?do_widen@?$ctype@D@std@@MEBAPEBDPEBD0PEAD@Z
pdata	ENDS
;	COMDAT pdata
pdata	SEGMENT
$pdata$?do_narrow@?$ctype@D@std@@MEBADDD@Z DD imagerel $LN3
	DD	imagerel $LN3+80
	DD	imagerel $unwind$?do_narrow@?$ctype@D@std@@MEBADDD@Z
pdata	ENDS
;	COMDAT pdata
pdata	SEGMENT
$pdata$?do_narrow@?$ctype@D@std@@MEBAPEBDPEBD0DPEAD@Z DD imagerel $LN3
	DD	imagerel $LN3+147
	DD	imagerel $unwind$?do_narrow@?$ctype@D@std@@MEBAPEBDPEBD0DPEAD@Z
pdata	ENDS
;	COMDAT pdata
pdata	SEGMENT
$pdata$??_G?$ctype@D@std@@MEAAPEAXI@Z DD imagerel $LN7
	DD	imagerel $LN7+132
	DD	imagerel $unwind$??_G?$ctype@D@std@@MEAAPEAXI@Z
pdata	ENDS
;	COMDAT pdata
pdata	SEGMENT
$pdata$??$use_facet@V?$ctype@D@std@@@std@@YAAEBV?$ctype@D@0@AEBVlocale@0@@Z DD imagerel $LN11
	DD	imagerel $LN11+340
	DD	imagerel $unwind$??$use_facet@V?$ctype@D@std@@@std@@YAAEBV?$ctype@D@0@AEBVlocale@0@@Z
pdata	ENDS
;	COMDAT pdata
pdata	SEGMENT
$pdata$?dtor$0@?0???$use_facet@V?$ctype@D@std@@@std@@YAAEBV?$ctype@D@0@AEBVlocale@0@@Z@4HA DD imagerel ?dtor$0@?0???$use_facet@V?$ctype@D@std@@@std@@YAAEBV?$ctype@D@0@AEBVlocale@0@@Z@4HA
	DD	imagerel ?dtor$0@?0???$use_facet@V?$ctype@D@std@@@std@@YAAEBV?$ctype@D@0@AEBVlocale@0@@Z@4HA+36
	DD	imagerel $unwind$?dtor$0@?0???$use_facet@V?$ctype@D@std@@@std@@YAAEBV?$ctype@D@0@AEBVlocale@0@@Z@4HA
pdata	ENDS
;	COMDAT pdata
pdata	SEGMENT
$pdata$?dtor$1@?0???$use_facet@V?$ctype@D@std@@@std@@YAAEBV?$ctype@D@0@AEBVlocale@0@@Z@4HA DD imagerel ?dtor$1@?0???$use_facet@V?$ctype@D@std@@@std@@YAAEBV?$ctype@D@0@AEBVlocale@0@@Z@4HA
	DD	imagerel ?dtor$1@?0???$use_facet@V?$ctype@D@std@@@std@@YAAEBV?$ctype@D@0@AEBVlocale@0@@Z@4HA+39
	DD	imagerel $unwind$?dtor$1@?0???$use_facet@V?$ctype@D@std@@@std@@YAAEBV?$ctype@D@0@AEBVlocale@0@@Z@4HA
pdata	ENDS
;	COMDAT pdata
pdata	SEGMENT
$pdata$??$_Adl_verify_range@PEADPEBD@std@@YAXAEBQEADAEBQEBD@Z DD imagerel $LN3
	DD	imagerel $LN3+94
	DD	imagerel $unwind$??$_Adl_verify_range@PEADPEBD@std@@YAXAEBQEADAEBQEBD@Z
pdata	ENDS
;	COMDAT pdata
pdata	SEGMENT
$pdata$??0failure@ios_base@std@@QEAA@PEBDAEBVerror_code@2@@Z DD imagerel $LN4
	DD	imagerel $LN4+150
	DD	imagerel $unwind$??0failure@ios_base@std@@QEAA@PEBDAEBVerror_code@2@@Z
pdata	ENDS
;	COMDAT pdata
pdata	SEGMENT
$pdata$??1failure@ios_base@std@@UEAA@XZ DD imagerel $LN3
	DD	imagerel $LN3+64
	DD	imagerel $unwind$??1failure@ios_base@std@@UEAA@XZ
pdata	ENDS
;	COMDAT pdata
pdata	SEGMENT
$pdata$??0failure@ios_base@std@@QEAA@AEBV012@@Z DD imagerel $LN3
	DD	imagerel $LN3+100
	DD	imagerel $unwind$??0failure@ios_base@std@@QEAA@AEBV012@@Z
pdata	ENDS
;	COMDAT pdata
pdata	SEGMENT
$pdata$??_Gfailure@ios_base@std@@UEAAPEAXI@Z DD imagerel $LN4
	DD	imagerel $LN4+105
	DD	imagerel $unwind$??_Gfailure@ios_base@std@@UEAAPEAXI@Z
pdata	ENDS
;	COMDAT pdata
pdata	SEGMENT
$pdata$?clear@ios_base@std@@QEAAXH_N@Z DD imagerel $LN9
	DD	imagerel $LN9+269
	DD	imagerel $unwind$?clear@ios_base@std@@QEAAXH_N@Z
pdata	ENDS
;	COMDAT pdata
pdata	SEGMENT
$pdata$?rdstate@ios_base@std@@QEBAHXZ DD imagerel $LN3
	DD	imagerel $LN3+74
	DD	imagerel $unwind$?rdstate@ios_base@std@@QEBAHXZ
pdata	ENDS
;	COMDAT pdata
pdata	SEGMENT
$pdata$?good@ios_base@std@@QEBA_NXZ DD imagerel $LN5
	DD	imagerel $LN5+109
	DD	imagerel $unwind$?good@ios_base@std@@QEBA_NXZ
pdata	ENDS
;	COMDAT pdata
pdata	SEGMENT
$pdata$?flags@ios_base@std@@QEBAHXZ DD imagerel $LN3
	DD	imagerel $LN3+74
	DD	imagerel $unwind$?flags@ios_base@std@@QEBAHXZ
pdata	ENDS
;	COMDAT pdata
pdata	SEGMENT
$pdata$?width@ios_base@std@@QEBA_JXZ DD imagerel $LN3
	DD	imagerel $LN3+75
	DD	imagerel $unwind$?width@ios_base@std@@QEBA_JXZ
pdata	ENDS
;	COMDAT pdata
pdata	SEGMENT
$pdata$?width@ios_base@std@@QEAA_J_J@Z DD imagerel $LN3
	DD	imagerel $LN3+106
	DD	imagerel $unwind$?width@ios_base@std@@QEAA_J_J@Z
pdata	ENDS
;	COMDAT pdata
pdata	SEGMENT
$pdata$?getloc@ios_base@std@@QEBA?AVlocale@2@XZ DD imagerel $LN5
	DD	imagerel $LN5+124
	DD	imagerel $unwind$?getloc@ios_base@std@@QEBA?AVlocale@2@XZ
pdata	ENDS
;	COMDAT pdata
pdata	SEGMENT
$pdata$?_Throw_tree_length_error@std@@YAXXZ DD imagerel $LN3
	DD	imagerel $LN3+64
	DD	imagerel $unwind$?_Throw_tree_length_error@std@@YAXXZ
pdata	ENDS
;	COMDAT pdata
pdata	SEGMENT
$pdata$??1IRef@@UEAA@XZ DD imagerel $LN3
	DD	imagerel $LN3+81
	DD	imagerel $unwind$??1IRef@@UEAA@XZ
pdata	ENDS
;	COMDAT pdata
pdata	SEGMENT
$pdata$?SetHandle@IRef@@QEAAX_K@Z DD imagerel $LN3
	DD	imagerel $LN3+87
	DD	imagerel $unwind$?SetHandle@IRef@@QEAAX_K@Z
pdata	ENDS
;	COMDAT pdata
pdata	SEGMENT
$pdata$??0IRef@@QEAA@XZ DD imagerel $LN3
	DD	imagerel $LN3+89
	DD	imagerel $unwind$??0IRef@@QEAA@XZ
pdata	ENDS
;	COMDAT pdata
pdata	SEGMENT
$pdata$??0IRef@@QEAA@AEBV0@@Z DD imagerel $LN3
	DD	imagerel $LN3+101
	DD	imagerel $unwind$??0IRef@@QEAA@AEBV0@@Z
pdata	ENDS
;	COMDAT pdata
pdata	SEGMENT
$pdata$??_GIRef@@UEAAPEAXI@Z DD imagerel $LN4
	DD	imagerel $LN4+105
	DD	imagerel $unwind$??_GIRef@@UEAAPEAXI@Z
pdata	ENDS
;	COMDAT pdata
pdata	SEGMENT
$pdata$?GetInternalRef@@YA?AUInternalRef@@_K@Z DD imagerel $LN3
	DD	imagerel $LN3+90
	DD	imagerel $unwind$?GetInternalRef@@YA?AUInternalRef@@_K@Z
pdata	ENDS
;	COMDAT pdata
pdata	SEGMENT
$pdata$?GetInternalRef@Allocator@@SA?AUInternalRef@@_K@Z DD imagerel $LN3
	DD	imagerel $LN3+86
	DD	imagerel $unwind$?GetInternalRef@Allocator@@SA?AUInternalRef@@_K@Z
pdata	ENDS
;	COMDAT pdata
pdata	SEGMENT
$pdata$??0?$allocator@U?$_Tree_node@U?$pair@$$CB_KUInternalRef@@@std@@PEAX@std@@@std@@QEAA@XZ DD imagerel $LN3
	DD	imagerel $LN3+71
	DD	imagerel $unwind$??0?$allocator@U?$_Tree_node@U?$pair@$$CB_KUInternalRef@@@std@@PEAX@std@@@std@@QEAA@XZ
pdata	ENDS
;	COMDAT pdata
pdata	SEGMENT
$pdata$?deallocate@?$allocator@U?$_Tree_node@U?$pair@$$CB_KUInternalRef@@@std@@PEAX@std@@@std@@QEAAXQEAU?$_Tree_node@U?$pair@$$CB_KUInternalRef@@@std@@PEAX@2@_K@Z DD imagerel $LN3
	DD	imagerel $LN3+97
	DD	imagerel $unwind$?deallocate@?$allocator@U?$_Tree_node@U?$pair@$$CB_KUInternalRef@@@std@@PEAX@std@@@std@@QEAAXQEAU?$_Tree_node@U?$pair@$$CB_KUInternalRef@@@std@@PEAX@2@_K@Z
pdata	ENDS
;	COMDAT pdata
pdata	SEGMENT
$pdata$?allocate@?$allocator@U?$_Tree_node@U?$pair@$$CB_KUInternalRef@@@std@@PEAX@std@@@std@@QEAAPEAU?$_Tree_node@U?$pair@$$CB_KUInternalRef@@@std@@PEAX@2@_K@Z DD imagerel $LN3
	DD	imagerel $LN3+89
	DD	imagerel $unwind$?allocate@?$allocator@U?$_Tree_node@U?$pair@$$CB_KUInternalRef@@@std@@PEAX@std@@@std@@QEAAPEAU?$_Tree_node@U?$pair@$$CB_KUInternalRef@@@std@@PEAX@2@_K@Z
pdata	ENDS
;	COMDAT pdata
pdata	SEGMENT
$pdata$?deallocate@?$_Default_allocator_traits@V?$allocator@U?$_Tree_node@U?$pair@$$CB_KUInternalRef@@@std@@PEAX@std@@@std@@@std@@SAXAEAV?$allocator@U?$_Tree_node@U?$pair@$$CB_KUInternalRef@@@std@@PEAX@std@@@2@QEAU?$_Tree_node@U?$pair@$$CB_KUInternalRef@@@std@@PEAX@2@_K@Z DD imagerel $LN3
	DD	imagerel $LN3+97
	DD	imagerel $unwind$?deallocate@?$_Default_allocator_traits@V?$allocator@U?$_Tree_node@U?$pair@$$CB_KUInternalRef@@@std@@PEAX@std@@@std@@@std@@SAXAEAV?$allocator@U?$_Tree_node@U?$pair@$$CB_KUInternalRef@@@std@@PEAX@std@@@2@QEAU?$_Tree_node@U?$pair@$$CB_KUInternalRef@@@std@@PEAX@2@_K@Z
pdata	ENDS
;	COMDAT pdata
pdata	SEGMENT
$pdata$?max_size@?$_Default_allocator_traits@V?$allocator@U?$_Tree_node@U?$pair@$$CB_KUInternalRef@@@std@@PEAX@std@@@std@@@std@@SA_KAEBV?$allocator@U?$_Tree_node@U?$pair@$$CB_KUInternalRef@@@std@@PEAX@std@@@2@@Z DD imagerel $LN3
	DD	imagerel $LN3+74
	DD	imagerel $unwind$?max_size@?$_Default_allocator_traits@V?$allocator@U?$_Tree_node@U?$pair@$$CB_KUInternalRef@@@std@@PEAX@std@@@std@@@std@@SA_KAEBV?$allocator@U?$_Tree_node@U?$pair@$$CB_KUInternalRef@@@std@@PEAX@std@@@2@@Z
pdata	ENDS
;	COMDAT pdata
pdata	SEGMENT
$pdata$??0?$_Tree@V?$_Tmap_traits@_KUInternalRef@@U?$less@_K@std@@V?$allocator@U?$pair@$$CB_KUInternalRef@@@std@@@3@$0A@@std@@@std@@QEAA@AEBU?$less@_K@1@@Z DD imagerel $LN3
	DD	imagerel $LN3+135
	DD	imagerel $unwind$??0?$_Tree@V?$_Tmap_traits@_KUInternalRef@@U?$less@_K@std@@V?$allocator@U?$pair@$$CB_KUInternalRef@@@std@@@3@$0A@@std@@@std@@QEAA@AEBU?$less@_K@1@@Z
pdata	ENDS
;	COMDAT pdata
pdata	SEGMENT
$pdata$??1?$_Tree@V?$_Tmap_traits@_KUInternalRef@@U?$less@_K@std@@V?$allocator@U?$pair@$$CB_KUInternalRef@@@std@@@3@$0A@@std@@@std@@QEAA@XZ DD imagerel $LN3
	DD	imagerel $LN3+169
	DD	imagerel $unwind$??1?$_Tree@V?$_Tmap_traits@_KUInternalRef@@U?$less@_K@std@@V?$allocator@U?$pair@$$CB_KUInternalRef@@@std@@@3@$0A@@std@@@std@@QEAA@XZ
pdata	ENDS
;	COMDAT pdata
pdata	SEGMENT
$pdata$?max_size@?$_Tree@V?$_Tmap_traits@_KUInternalRef@@U?$less@_K@std@@V?$allocator@U?$pair@$$CB_KUInternalRef@@@std@@@3@$0A@@std@@@std@@QEBA_KXZ DD imagerel $LN3
	DD	imagerel $LN3+125
	DD	imagerel $unwind$?max_size@?$_Tree@V?$_Tmap_traits@_KUInternalRef@@U?$less@_K@std@@V?$allocator@U?$pair@$$CB_KUInternalRef@@@std@@@3@$0A@@std@@@std@@QEBA_KXZ
pdata	ENDS
;	COMDAT pdata
pdata	SEGMENT
$pdata$?_Check_grow_by_1@?$_Tree@V?$_Tmap_traits@_KUInternalRef@@U?$less@_K@std@@V?$allocator@U?$pair@$$CB_KUInternalRef@@@std@@@3@$0A@@std@@@std@@IEAAXXZ DD imagerel $LN4
	DD	imagerel $LN4+113
	DD	imagerel $unwind$?_Check_grow_by_1@?$_Tree@V?$_Tmap_traits@_KUInternalRef@@U?$less@_K@std@@V?$allocator@U?$pair@$$CB_KUInternalRef@@@std@@@3@$0A@@std@@@std@@IEAAXXZ
pdata	ENDS
;	COMDAT pdata
pdata	SEGMENT
$pdata$?_Alloc_sentinel_and_proxy@?$_Tree@V?$_Tmap_traits@_KUInternalRef@@U?$less@_K@std@@V?$allocator@U?$pair@$$CB_KUInternalRef@@@std@@@3@$0A@@std@@@std@@IEAAXXZ DD imagerel $LN4
	DD	imagerel $LN4+193
	DD	imagerel $unwind$?_Alloc_sentinel_and_proxy@?$_Tree@V?$_Tmap_traits@_KUInternalRef@@U?$less@_K@std@@V?$allocator@U?$pair@$$CB_KUInternalRef@@@std@@@3@$0A@@std@@@std@@IEAAXXZ
pdata	ENDS
;	COMDAT pdata
pdata	SEGMENT
$pdata$?dtor$0@?0??_Alloc_sentinel_and_proxy@?$_Tree@V?$_Tmap_traits@_KUInternalRef@@U?$less@_K@std@@V?$allocator@U?$pair@$$CB_KUInternalRef@@@std@@@3@$0A@@std@@@std@@IEAAXXZ@4HA DD imagerel ?dtor$0@?0??_Alloc_sentinel_and_proxy@?$_Tree@V?$_Tmap_traits@_KUInternalRef@@U?$less@_K@std@@V?$allocator@U?$pair@$$CB_KUInternalRef@@@std@@@3@$0A@@std@@@std@@IEAAXXZ@4HA
	DD	imagerel ?dtor$0@?0??_Alloc_sentinel_and_proxy@?$_Tree@V?$_Tmap_traits@_KUInternalRef@@U?$less@_K@std@@V?$allocator@U?$pair@$$CB_KUInternalRef@@@std@@@3@$0A@@std@@@std@@IEAAXXZ@4HA+36
	DD	imagerel $unwind$?dtor$0@?0??_Alloc_sentinel_and_proxy@?$_Tree@V?$_Tmap_traits@_KUInternalRef@@U?$less@_K@std@@V?$allocator@U?$pair@$$CB_KUInternalRef@@@std@@@3@$0A@@std@@@std@@IEAAXXZ@4HA
pdata	ENDS
;	COMDAT pdata
pdata	SEGMENT
$pdata$?_Getcomp@?$_Tree@V?$_Tmap_traits@_KUInternalRef@@U?$less@_K@std@@V?$allocator@U?$pair@$$CB_KUInternalRef@@@std@@@3@$0A@@std@@@std@@IEBAAEBU?$less@_K@2@XZ DD imagerel $LN3
	DD	imagerel $LN3+80
	DD	imagerel $unwind$?_Getcomp@?$_Tree@V?$_Tmap_traits@_KUInternalRef@@U?$less@_K@std@@V?$allocator@U?$pair@$$CB_KUInternalRef@@@std@@@3@$0A@@std@@@std@@IEBAAEBU?$less@_K@2@XZ
pdata	ENDS
;	COMDAT pdata
pdata	SEGMENT
$pdata$?_Getal@?$_Tree@V?$_Tmap_traits@_KUInternalRef@@U?$less@_K@std@@V?$allocator@U?$pair@$$CB_KUInternalRef@@@std@@@3@$0A@@std@@@std@@IEAAAEAV?$allocator@U?$_Tree_node@U?$pair@$$CB_KUInternalRef@@@std@@PEAX@std@@@2@XZ DD imagerel $LN3
	DD	imagerel $LN3+80
	DD	imagerel $unwind$?_Getal@?$_Tree@V?$_Tmap_traits@_KUInternalRef@@U?$less@_K@std@@V?$allocator@U?$pair@$$CB_KUInternalRef@@@std@@@3@$0A@@std@@@std@@IEAAAEAV?$allocator@U?$_Tree_node@U?$pair@$$CB_KUInternalRef@@@std@@PEAX@std@@@2@XZ
pdata	ENDS
;	COMDAT pdata
pdata	SEGMENT
$pdata$?_Getal@?$_Tree@V?$_Tmap_traits@_KUInternalRef@@U?$less@_K@std@@V?$allocator@U?$pair@$$CB_KUInternalRef@@@std@@@3@$0A@@std@@@std@@IEBAAEBV?$allocator@U?$_Tree_node@U?$pair@$$CB_KUInternalRef@@@std@@PEAX@std@@@2@XZ DD imagerel $LN3
	DD	imagerel $LN3+80
	DD	imagerel $unwind$?_Getal@?$_Tree@V?$_Tmap_traits@_KUInternalRef@@U?$less@_K@std@@V?$allocator@U?$pair@$$CB_KUInternalRef@@@std@@@3@$0A@@std@@@std@@IEBAAEBV?$allocator@U?$_Tree_node@U?$pair@$$CB_KUInternalRef@@@std@@PEAX@std@@@2@XZ
pdata	ENDS
;	COMDAT pdata
pdata	SEGMENT
$pdata$?_Get_scary@?$_Tree@V?$_Tmap_traits@_KUInternalRef@@U?$less@_K@std@@V?$allocator@U?$pair@$$CB_KUInternalRef@@@std@@@3@$0A@@std@@@std@@IEAAPEAV?$_Tree_val@U?$_Tree_simple_types@U?$pair@$$CB_KUInternalRef@@@std@@@std@@@2@XZ DD imagerel $LN3
	DD	imagerel $LN3+80
	DD	imagerel $unwind$?_Get_scary@?$_Tree@V?$_Tmap_traits@_KUInternalRef@@U?$less@_K@std@@V?$allocator@U?$pair@$$CB_KUInternalRef@@@std@@@3@$0A@@std@@@std@@IEAAPEAV?$_Tree_val@U?$_Tree_simple_types@U?$pair@$$CB_KUInternalRef@@@std@@@std@@@2@XZ
pdata	ENDS
;	COMDAT pdata
pdata	SEGMENT
$pdata$?_Get_scary@?$_Tree@V?$_Tmap_traits@_KUInternalRef@@U?$less@_K@std@@V?$allocator@U?$pair@$$CB_KUInternalRef@@@std@@@3@$0A@@std@@@std@@IEBAPEBV?$_Tree_val@U?$_Tree_simple_types@U?$pair@$$CB_KUInternalRef@@@std@@@std@@@2@XZ DD imagerel $LN3
	DD	imagerel $LN3+80
	DD	imagerel $unwind$?_Get_scary@?$_Tree@V?$_Tmap_traits@_KUInternalRef@@U?$less@_K@std@@V?$allocator@U?$pair@$$CB_KUInternalRef@@@std@@@3@$0A@@std@@@std@@IEBAPEBV?$_Tree_val@U?$_Tree_simple_types@U?$pair@$$CB_KUInternalRef@@@std@@@std@@@2@XZ
pdata	ENDS
;	COMDAT pdata
pdata	SEGMENT
$pdata$??R?$less@_K@std@@QEBA_NAEB_K0@Z DD imagerel $LN5
	DD	imagerel $LN5+125
	DD	imagerel $unwind$??R?$less@_K@std@@QEBA_NAEB_K0@Z
pdata	ENDS
;	COMDAT pdata
pdata	SEGMENT
$pdata$??0?$_Tree_val@U?$_Tree_simple_types@U?$pair@$$CB_KUInternalRef@@@std@@@std@@@std@@QEAA@XZ DD imagerel $LN3
	DD	imagerel $LN3+113
	DD	imagerel $unwind$??0?$_Tree_val@U?$_Tree_simple_types@U?$pair@$$CB_KUInternalRef@@@std@@@std@@@std@@QEAA@XZ
pdata	ENDS
;	COMDAT pdata
pdata	SEGMENT
$pdata$?_Lrotate@?$_Tree_val@U?$_Tree_simple_types@U?$pair@$$CB_KUInternalRef@@@std@@@std@@@std@@QEAAXPEAU?$_Tree_node@U?$pair@$$CB_KUInternalRef@@@std@@PEAX@2@@Z DD imagerel $LN8
	DD	imagerel $LN8+290
	DD	imagerel $unwind$?_Lrotate@?$_Tree_val@U?$_Tree_simple_types@U?$pair@$$CB_KUInternalRef@@@std@@@std@@@std@@QEAAXPEAU?$_Tree_node@U?$pair@$$CB_KUInternalRef@@@std@@PEAX@2@@Z
pdata	ENDS
;	COMDAT pdata
pdata	SEGMENT
$pdata$?_Rrotate@?$_Tree_val@U?$_Tree_simple_types@U?$pair@$$CB_KUInternalRef@@@std@@@std@@@std@@QEAAXPEAU?$_Tree_node@U?$pair@$$CB_KUInternalRef@@@std@@PEAX@2@@Z DD imagerel $LN8
	DD	imagerel $LN8+293
	DD	imagerel $unwind$?_Rrotate@?$_Tree_val@U?$_Tree_simple_types@U?$pair@$$CB_KUInternalRef@@@std@@@std@@@std@@QEAAXPEAU?$_Tree_node@U?$pair@$$CB_KUInternalRef@@@std@@PEAX@2@@Z
pdata	ENDS
;	COMDAT pdata
pdata	SEGMENT
$pdata$?_Insert_node@?$_Tree_val@U?$_Tree_simple_types@U?$pair@$$CB_KUInternalRef@@@std@@@std@@@std@@QEAAPEAU?$_Tree_node@U?$pair@$$CB_KUInternalRef@@@std@@PEAX@2@U?$_Tree_id@PEAU?$_Tree_node@U?$pair@$$CB_KUInternalRef@@@std@@PEAX@std@@@2@QEAU32@@Z DD imagerel $LN19
	DD	imagerel $LN19+797
	DD	imagerel $unwind$?_Insert_node@?$_Tree_val@U?$_Tree_simple_types@U?$pair@$$CB_KUInternalRef@@@std@@@std@@@std@@QEAAPEAU?$_Tree_node@U?$pair@$$CB_KUInternalRef@@@std@@PEAX@2@U?$_Tree_id@PEAU?$_Tree_node@U?$pair@$$CB_KUInternalRef@@@std@@PEAX@std@@@2@QEAU32@@Z
pdata	ENDS
;	COMDAT pdata
pdata	SEGMENT
$pdata$?_Get_first@?$_Compressed_pair@V?$allocator@U?$_Tree_node@U?$pair@$$CB_KUInternalRef@@@std@@PEAX@std@@@std@@V?$_Tree_val@U?$_Tree_simple_types@U?$pair@$$CB_KUInternalRef@@@std@@@std@@@2@$00@std@@QEAAAEAV?$allocator@U?$_Tree_node@U?$pair@$$CB_KUInternalRef@@@std@@PEAX@std@@@2@XZ DD imagerel $LN3
	DD	imagerel $LN3+71
	DD	imagerel $unwind$?_Get_first@?$_Compressed_pair@V?$allocator@U?$_Tree_node@U?$pair@$$CB_KUInternalRef@@@std@@PEAX@std@@@std@@V?$_Tree_val@U?$_Tree_simple_types@U?$pair@$$CB_KUInternalRef@@@std@@@std@@@2@$00@std@@QEAAAEAV?$allocator@U?$_Tree_node@U?$pair@$$CB_KUInternalRef@@@std@@PEAX@std@@@2@XZ
pdata	ENDS
;	COMDAT pdata
pdata	SEGMENT
$pdata$?_Get_first@?$_Compressed_pair@V?$allocator@U?$_Tree_node@U?$pair@$$CB_KUInternalRef@@@std@@PEAX@std@@@std@@V?$_Tree_val@U?$_Tree_simple_types@U?$pair@$$CB_KUInternalRef@@@std@@@std@@@2@$00@std@@QEBAAEBV?$allocator@U?$_Tree_node@U?$pair@$$CB_KUInternalRef@@@std@@PEAX@std@@@2@XZ DD imagerel $LN3
	DD	imagerel $LN3+71
	DD	imagerel $unwind$?_Get_first@?$_Compressed_pair@V?$allocator@U?$_Tree_node@U?$pair@$$CB_KUInternalRef@@@std@@PEAX@std@@@std@@V?$_Tree_val@U?$_Tree_simple_types@U?$pair@$$CB_KUInternalRef@@@std@@@std@@@2@$00@std@@QEBAAEBV?$allocator@U?$_Tree_node@U?$pair@$$CB_KUInternalRef@@@std@@PEAX@std@@@2@XZ
pdata	ENDS
;	COMDAT pdata
pdata	SEGMENT
$pdata$?_Get_first@?$_Compressed_pair@U?$less@_K@std@@V?$_Compressed_pair@V?$allocator@U?$_Tree_node@U?$pair@$$CB_KUInternalRef@@@std@@PEAX@std@@@std@@V?$_Tree_val@U?$_Tree_simple_types@U?$pair@$$CB_KUInternalRef@@@std@@@std@@@2@$00@2@$00@std@@QEBAAEBU?$less@_K@2@XZ DD imagerel $LN3
	DD	imagerel $LN3+71
	DD	imagerel $unwind$?_Get_first@?$_Compressed_pair@U?$less@_K@std@@V?$_Compressed_pair@V?$allocator@U?$_Tree_node@U?$pair@$$CB_KUInternalRef@@@std@@PEAX@std@@@std@@V?$_Tree_val@U?$_Tree_simple_types@U?$pair@$$CB_KUInternalRef@@@std@@@std@@@2@$00@2@$00@std@@QEBAAEBU?$less@_K@2@XZ
pdata	ENDS
;	COMDAT pdata
pdata	SEGMENT
$pdata$??0?$map@_KUInternalRef@@U?$less@_K@std@@V?$allocator@U?$pair@$$CB_KUInternalRef@@@std@@@3@@std@@QEAA@XZ DD imagerel $LN4
	DD	imagerel $LN4+90
	DD	imagerel $unwind$??0?$map@_KUInternalRef@@U?$less@_K@std@@V?$allocator@U?$pair@$$CB_KUInternalRef@@@std@@@3@@std@@QEAA@XZ
pdata	ENDS
;	COMDAT pdata
pdata	SEGMENT
$pdata$??A?$map@_KUInternalRef@@U?$less@_K@std@@V?$allocator@U?$pair@$$CB_KUInternalRef@@@std@@@3@@std@@QEAAAEAUInternalRef@@AEB_K@Z DD imagerel $LN3
	DD	imagerel $LN3+102
	DD	imagerel $unwind$??A?$map@_KUInternalRef@@U?$less@_K@std@@V?$allocator@U?$pair@$$CB_KUInternalRef@@@std@@@3@@std@@QEAAAEAUInternalRef@@AEB_K@Z
pdata	ENDS
;	COMDAT pdata
pdata	SEGMENT
$pdata$??1?$map@_KUInternalRef@@U?$less@_K@std@@V?$allocator@U?$pair@$$CB_KUInternalRef@@@std@@@3@@std@@QEAA@XZ DD imagerel $LN3
	DD	imagerel $LN3+64
	DD	imagerel $unwind$??1?$map@_KUInternalRef@@U?$less@_K@std@@V?$allocator@U?$pair@$$CB_KUInternalRef@@@std@@@3@@std@@QEAA@XZ
pdata	ENDS
;	COMDAT pdata
pdata	SEGMENT
$pdata$??__E?m_Map@Allocator@@0V?$map@_KUInternalRef@@U?$less@_K@std@@V?$allocator@U?$pair@$$CB_KUInternalRef@@@std@@@3@@std@@A@@YAXXZ DD imagerel ??__E?m_Map@Allocator@@0V?$map@_KUInternalRef@@U?$less@_K@std@@V?$allocator@U?$pair@$$CB_KUInternalRef@@@std@@@3@@std@@A@@YAXXZ
	DD	imagerel ??__E?m_Map@Allocator@@0V?$map@_KUInternalRef@@U?$less@_K@std@@V?$allocator@U?$pair@$$CB_KUInternalRef@@@std@@@3@@std@@A@@YAXXZ+76
	DD	imagerel $unwind$??__E?m_Map@Allocator@@0V?$map@_KUInternalRef@@U?$less@_K@std@@V?$allocator@U?$pair@$$CB_KUInternalRef@@@std@@@3@@std@@A@@YAXXZ
pdata	ENDS
;	COMDAT pdata
pdata	SEGMENT
$pdata$??__F?m_Map@Allocator@@0V?$map@_KUInternalRef@@U?$less@_K@std@@V?$allocator@U?$pair@$$CB_KUInternalRef@@@std@@@3@@std@@A@@YAXXZ DD imagerel ??__F?m_Map@Allocator@@0V?$map@_KUInternalRef@@U?$less@_K@std@@V?$allocator@U?$pair@$$CB_KUInternalRef@@@std@@@3@@std@@A@@YAXXZ
	DD	imagerel ??__F?m_Map@Allocator@@0V?$map@_KUInternalRef@@U?$less@_K@std@@V?$allocator@U?$pair@$$CB_KUInternalRef@@@std@@@3@@std@@A@@YAXXZ+52
	DD	imagerel $unwind$??__F?m_Map@Allocator@@0V?$map@_KUInternalRef@@U?$less@_K@std@@V?$allocator@U?$pair@$$CB_KUInternalRef@@@std@@@3@@std@@A@@YAXXZ
pdata	ENDS
;	COMDAT pdata
pdata	SEGMENT
$pdata$?clear@?$basic_ios@DU?$char_traits@D@std@@@std@@QEAAXH_N@Z DD imagerel $LN5
	DD	imagerel $LN5+160
	DD	imagerel $unwind$?clear@?$basic_ios@DU?$char_traits@D@std@@@std@@QEAAXH_N@Z
pdata	ENDS
;	COMDAT pdata
pdata	SEGMENT
$pdata$?setstate@?$basic_ios@DU?$char_traits@D@std@@@std@@QEAAXH_N@Z DD imagerel $LN3
	DD	imagerel $LN3+113
	DD	imagerel $unwind$?setstate@?$basic_ios@DU?$char_traits@D@std@@@std@@QEAAXH_N@Z
pdata	ENDS
;	COMDAT pdata
pdata	SEGMENT
$pdata$?tie@?$basic_ios@DU?$char_traits@D@std@@@std@@QEBAPEAV?$basic_ostream@DU?$char_traits@D@std@@@2@XZ DD imagerel $LN3
	DD	imagerel $LN3+75
	DD	imagerel $unwind$?tie@?$basic_ios@DU?$char_traits@D@std@@@std@@QEBAPEAV?$basic_ostream@DU?$char_traits@D@std@@@2@XZ
pdata	ENDS
;	COMDAT pdata
pdata	SEGMENT
$pdata$?rdbuf@?$basic_ios@DU?$char_traits@D@std@@@std@@QEBAPEAV?$basic_streambuf@DU?$char_traits@D@std@@@2@XZ DD imagerel $LN3
	DD	imagerel $LN3+75
	DD	imagerel $unwind$?rdbuf@?$basic_ios@DU?$char_traits@D@std@@@std@@QEBAPEAV?$basic_streambuf@DU?$char_traits@D@std@@@2@XZ
pdata	ENDS
;	COMDAT pdata
pdata	SEGMENT
$pdata$?fill@?$basic_ios@DU?$char_traits@D@std@@@std@@QEBADXZ DD imagerel $LN3
	DD	imagerel $LN3+75
	DD	imagerel $unwind$?fill@?$basic_ios@DU?$char_traits@D@std@@@std@@QEBADXZ
pdata	ENDS
;	COMDAT pdata
pdata	SEGMENT
$pdata$?widen@?$basic_ios@DU?$char_traits@D@std@@@std@@QEBADD@Z DD imagerel $LN4
	DD	imagerel $LN4+171
	DD	imagerel $unwind$?widen@?$basic_ios@DU?$char_traits@D@std@@@std@@QEBADD@Z
pdata	ENDS
;	COMDAT pdata
pdata	SEGMENT
$pdata$?dtor$0@?0??widen@?$basic_ios@DU?$char_traits@D@std@@@std@@QEBADD@Z@4HA DD imagerel ?dtor$0@?0??widen@?$basic_ios@DU?$char_traits@D@std@@@std@@QEBADD@Z@4HA
	DD	imagerel ?dtor$0@?0??widen@?$basic_ios@DU?$char_traits@D@std@@@std@@QEBADD@Z@4HA+39
	DD	imagerel $unwind$?dtor$0@?0??widen@?$basic_ios@DU?$char_traits@D@std@@@std@@QEBADD@Z@4HA
pdata	ENDS
;	COMDAT pdata
pdata	SEGMENT
$pdata$?_Osfx@?$basic_ostream@DU?$char_traits@D@std@@@std@@QEAAXXZ DD imagerel $LN11
	DD	imagerel $LN11+301
	DD	imagerel $unwind$?_Osfx@?$basic_ostream@DU?$char_traits@D@std@@@std@@QEAAXXZ
pdata	ENDS
;	COMDAT pdata
pdata	SEGMENT
$pdata$?catch$0@?0??_Osfx@?$basic_ostream@DU?$char_traits@D@std@@@std@@QEAAXXZ@4HA DD imagerel ?catch$0@?0??_Osfx@?$basic_ostream@DU?$char_traits@D@std@@@std@@QEAAXXZ@4HA
	DD	imagerel ?catch$0@?0??_Osfx@?$basic_ostream@DU?$char_traits@D@std@@@std@@QEAAXXZ@4HA+35
	DD	imagerel $unwind$?catch$0@?0??_Osfx@?$basic_ostream@DU?$char_traits@D@std@@@std@@QEAAXXZ@4HA
pdata	ENDS
;	COMDAT pdata
pdata	SEGMENT
$pdata$??6?$basic_ostream@DU?$char_traits@D@std@@@std@@QEAAAEAV01@P6AAEAV01@AEAV01@@Z@Z DD imagerel $LN3
	DD	imagerel $LN3+96
	DD	imagerel $unwind$??6?$basic_ostream@DU?$char_traits@D@std@@@std@@QEAAAEAV01@P6AAEAV01@AEAV01@@Z@Z
pdata	ENDS
;	COMDAT pdata
pdata	SEGMENT
$pdata$?put@?$basic_ostream@DU?$char_traits@D@std@@@std@@QEAAAEAV12@D@Z DD imagerel $LN13
	DD	imagerel $LN13+367
	DD	imagerel $unwind$?put@?$basic_ostream@DU?$char_traits@D@std@@@std@@QEAAAEAV12@D@Z
pdata	ENDS
;	COMDAT pdata
pdata	SEGMENT
$pdata$?dtor$0@?0??put@?$basic_ostream@DU?$char_traits@D@std@@@std@@QEAAAEAV12@D@Z@4HA DD imagerel ?dtor$0@?0??put@?$basic_ostream@DU?$char_traits@D@std@@@std@@QEAAAEAV12@D@Z@4HA
	DD	imagerel ?dtor$0@?0??put@?$basic_ostream@DU?$char_traits@D@std@@@std@@QEAAAEAV12@D@Z@4HA+36
	DD	imagerel $unwind$?dtor$0@?0??put@?$basic_ostream@DU?$char_traits@D@std@@@std@@QEAAAEAV12@D@Z@4HA
pdata	ENDS
;	COMDAT pdata
pdata	SEGMENT
$pdata$?catch$1@?0??put@?$basic_ostream@DU?$char_traits@D@std@@@std@@QEAAAEAV12@D@Z@4HA DD imagerel ?catch$1@?0??put@?$basic_ostream@DU?$char_traits@D@std@@@std@@QEAAAEAV12@D@Z@4HA
	DD	imagerel ?catch$1@?0??put@?$basic_ostream@DU?$char_traits@D@std@@@std@@QEAAAEAV12@D@Z@4HA+90
	DD	imagerel $unwind$?catch$1@?0??put@?$basic_ostream@DU?$char_traits@D@std@@@std@@QEAAAEAV12@D@Z@4HA
pdata	ENDS
;	COMDAT pdata
pdata	SEGMENT
$pdata$?flush@?$basic_ostream@DU?$char_traits@D@std@@@std@@QEAAAEAV12@XZ DD imagerel $LN6
	DD	imagerel $LN6+250
	DD	imagerel $unwind$?flush@?$basic_ostream@DU?$char_traits@D@std@@@std@@QEAAAEAV12@XZ
pdata	ENDS
;	COMDAT pdata
pdata	SEGMENT
$pdata$?dtor$0@?0??flush@?$basic_ostream@DU?$char_traits@D@std@@@std@@QEAAAEAV12@XZ@4HA DD imagerel ?dtor$0@?0??flush@?$basic_ostream@DU?$char_traits@D@std@@@std@@QEAAAEAV12@XZ@4HA
	DD	imagerel ?dtor$0@?0??flush@?$basic_ostream@DU?$char_traits@D@std@@@std@@QEAAAEAV12@XZ@4HA+36
	DD	imagerel $unwind$?dtor$0@?0??flush@?$basic_ostream@DU?$char_traits@D@std@@@std@@QEAAAEAV12@XZ@4HA
pdata	ENDS
;	COMDAT pdata
pdata	SEGMENT
$pdata$??$?6U?$char_traits@D@std@@@std@@YAAEAV?$basic_ostream@DU?$char_traits@D@std@@@0@AEAV10@PEBD@Z DD imagerel $LN25
	DD	imagerel $LN25+1078
	DD	imagerel $unwind$??$?6U?$char_traits@D@std@@@std@@YAAEAV?$basic_ostream@DU?$char_traits@D@std@@@0@AEAV10@PEBD@Z
pdata	ENDS
;	COMDAT pdata
pdata	SEGMENT
$pdata$?dtor$0@?0???$?6U?$char_traits@D@std@@@std@@YAAEAV?$basic_ostream@DU?$char_traits@D@std@@@0@AEAV10@PEBD@Z@4HA DD imagerel ?dtor$0@?0???$?6U?$char_traits@D@std@@@std@@YAAEAV?$basic_ostream@DU?$char_traits@D@std@@@0@AEAV10@PEBD@Z@4HA
	DD	imagerel ?dtor$0@?0???$?6U?$char_traits@D@std@@@std@@YAAEAV?$basic_ostream@DU?$char_traits@D@std@@@0@AEAV10@PEBD@Z@4HA+36
	DD	imagerel $unwind$?dtor$0@?0???$?6U?$char_traits@D@std@@@std@@YAAEAV?$basic_ostream@DU?$char_traits@D@std@@@0@AEAV10@PEBD@Z@4HA
pdata	ENDS
;	COMDAT pdata
pdata	SEGMENT
$pdata$?catch$1@?0???$?6U?$char_traits@D@std@@@std@@YAAEAV?$basic_ostream@DU?$char_traits@D@std@@@0@AEAV10@PEBD@Z@4HA DD imagerel ?catch$1@?0???$?6U?$char_traits@D@std@@@std@@YAAEAV?$basic_ostream@DU?$char_traits@D@std@@@0@AEAV10@PEBD@Z@4HA
	DD	imagerel ?catch$1@?0???$?6U?$char_traits@D@std@@@std@@YAAEAV?$basic_ostream@DU?$char_traits@D@std@@@0@AEAV10@PEBD@Z@4HA+90
	DD	imagerel $unwind$?catch$1@?0???$?6U?$char_traits@D@std@@@std@@YAAEAV?$basic_ostream@DU?$char_traits@D@std@@@0@AEAV10@PEBD@Z@4HA
pdata	ENDS
;	COMDAT pdata
pdata	SEGMENT
$pdata$??$endl@DU?$char_traits@D@std@@@std@@YAAEAV?$basic_ostream@DU?$char_traits@D@std@@@0@AEAV10@@Z DD imagerel $LN3
	DD	imagerel $LN3+146
	DD	imagerel $unwind$??$endl@DU?$char_traits@D@std@@@std@@YAAEAV?$basic_ostream@DU?$char_traits@D@std@@@0@AEAV10@@Z
pdata	ENDS
;	COMDAT pdata
pdata	SEGMENT
$pdata$??0Student@@QEAA@XZ DD imagerel $LN4
	DD	imagerel $LN4+120
	DD	imagerel $unwind$??0Student@@QEAA@XZ
pdata	ENDS
;	COMDAT pdata
pdata	SEGMENT
$pdata$??1Student@@QEAA@XZ DD imagerel $LN3
	DD	imagerel $LN3+125
	DD	imagerel $unwind$??1Student@@QEAA@XZ
pdata	ENDS
;	COMDAT pdata
pdata	SEGMENT
$pdata$??_GStudent@@QEAAPEAXI@Z DD imagerel $LN4
	DD	imagerel $LN4+105
	DD	imagerel $unwind$??_GStudent@@QEAAPEAXI@Z
pdata	ENDS
;	COMDAT pdata
pdata	SEGMENT
$pdata$main DD	imagerel $LN7
	DD	imagerel $LN7+111
	DD	imagerel $unwind$main
pdata	ENDS
;	COMDAT pdata
pdata	SEGMENT
$pdata$??$New@UStudent@@$$V@Allocator@@SA?AV?$Ref@UStudent@@@@XZ DD imagerel $LN6
	DD	imagerel $LN6+324
	DD	imagerel $unwind$??$New@UStudent@@$$V@Allocator@@SA?AV?$Ref@UStudent@@@@XZ
pdata	ENDS
;	COMDAT pdata
pdata	SEGMENT
$pdata$?dtor$0@?0???$New@UStudent@@$$V@Allocator@@SA?AV?$Ref@UStudent@@@@XZ@4HA DD imagerel ?dtor$0@?0???$New@UStudent@@$$V@Allocator@@SA?AV?$Ref@UStudent@@@@XZ@4HA
	DD	imagerel ?dtor$0@?0???$New@UStudent@@$$V@Allocator@@SA?AV?$Ref@UStudent@@@@XZ@4HA+36
	DD	imagerel $unwind$?dtor$0@?0???$New@UStudent@@$$V@Allocator@@SA?AV?$Ref@UStudent@@@@XZ@4HA
pdata	ENDS
;	COMDAT pdata
pdata	SEGMENT
$pdata$??0?$Ref@UStudent@@@@QEAA@XZ DD imagerel $LN4
	DD	imagerel $LN4+100
	DD	imagerel $unwind$??0?$Ref@UStudent@@@@QEAA@XZ
pdata	ENDS
;	COMDAT pdata
pdata	SEGMENT
$pdata$??1?$Ref@UStudent@@@@UEAA@XZ DD imagerel $LN3
	DD	imagerel $LN3+94
	DD	imagerel $unwind$??1?$Ref@UStudent@@@@UEAA@XZ
pdata	ENDS
;	COMDAT pdata
pdata	SEGMENT
$pdata$?Finalize@?$Ref@UStudent@@@@UEAAXXZ DD imagerel $LN3
	DD	imagerel $LN3+97
	DD	imagerel $unwind$?Finalize@?$Ref@UStudent@@@@UEAAXXZ
pdata	ENDS
;	COMDAT pdata
pdata	SEGMENT
$pdata$?Get@?$Ref@UStudent@@@@QEBAPEAUStudent@@XZ DD imagerel $LN3
	DD	imagerel $LN3+76
	DD	imagerel $unwind$?Get@?$Ref@UStudent@@@@QEBAPEAUStudent@@XZ
pdata	ENDS
;	COMDAT pdata
pdata	SEGMENT
$pdata$??C?$Ref@UStudent@@@@QEBAPEAUStudent@@XZ DD imagerel $LN3
	DD	imagerel $LN3+94
	DD	imagerel $unwind$??C?$Ref@UStudent@@@@QEBAPEAUStudent@@XZ
pdata	ENDS
;	COMDAT pdata
pdata	SEGMENT
$pdata$??0?$Ref@UStudent@@@@QEAA@AEBV0@@Z DD imagerel $LN3
	DD	imagerel $LN3+100
	DD	imagerel $unwind$??0?$Ref@UStudent@@@@QEAA@AEBV0@@Z
pdata	ENDS
;	COMDAT pdata
pdata	SEGMENT
$pdata$??_G?$Ref@UStudent@@@@UEAAPEAXI@Z DD imagerel $LN4
	DD	imagerel $LN4+105
	DD	imagerel $unwind$??_G?$Ref@UStudent@@@@UEAAPEAXI@Z
pdata	ENDS
;	COMDAT pdata
pdata	SEGMENT
$pdata$??$_Try_emplace@AEB_K$$V@?$map@_KUInternalRef@@U?$less@_K@std@@V?$allocator@U?$pair@$$CB_KUInternalRef@@@std@@@3@@std@@AEAA?AU?$pair@PEAU?$_Tree_node@U?$pair@$$CB_KUInternalRef@@@std@@PEAX@std@@_N@1@AEB_K@Z DD imagerel $LN5
	DD	imagerel $LN5+491
	DD	imagerel $unwind$??$_Try_emplace@AEB_K$$V@?$map@_KUInternalRef@@U?$less@_K@std@@V?$allocator@U?$pair@$$CB_KUInternalRef@@@std@@@3@@std@@AEAA?AU?$pair@PEAU?$_Tree_node@U?$pair@$$CB_KUInternalRef@@@std@@PEAX@std@@_N@1@AEB_K@Z
pdata	ENDS
;	COMDAT pdata
pdata	SEGMENT
$pdata$??$_Erase_head@V?$allocator@U?$_Tree_node@U?$pair@$$CB_KUInternalRef@@@std@@PEAX@std@@@std@@@?$_Tree_val@U?$_Tree_simple_types@U?$pair@$$CB_KUInternalRef@@@std@@@std@@@std@@QEAAXAEAV?$allocator@U?$_Tree_node@U?$pair@$$CB_KUInternalRef@@@std@@PEAX@std@@@1@@Z DD imagerel $LN3
	DD	imagerel $LN3+139
	DD	imagerel $unwind$??$_Erase_head@V?$allocator@U?$_Tree_node@U?$pair@$$CB_KUInternalRef@@@std@@PEAX@std@@@std@@@?$_Tree_val@U?$_Tree_simple_types@U?$pair@$$CB_KUInternalRef@@@std@@@std@@@std@@QEAAXAEAV?$allocator@U?$_Tree_node@U?$pair@$$CB_KUInternalRef@@@std@@PEAX@std@@@1@@Z
pdata	ENDS
;	COMDAT pdata
pdata	SEGMENT
$pdata$?allocate@?$allocator@U_Container_proxy@std@@@std@@QEAAPEAU_Container_proxy@2@_K@Z DD imagerel $LN3
	DD	imagerel $LN3+89
	DD	imagerel $unwind$?allocate@?$allocator@U_Container_proxy@std@@@std@@QEAAPEAU_Container_proxy@2@_K@Z
pdata	ENDS
;	COMDAT pdata
pdata	SEGMENT
$pdata$??$?0U?$_Tree_node@U?$pair@$$CB_KUInternalRef@@@std@@PEAX@std@@@?$allocator@U_Container_proxy@std@@@std@@QEAA@AEBV?$allocator@U?$_Tree_node@U?$pair@$$CB_KUInternalRef@@@std@@PEAX@std@@@1@@Z DD imagerel $LN3
	DD	imagerel $LN3+76
	DD	imagerel $unwind$??$?0U?$_Tree_node@U?$pair@$$CB_KUInternalRef@@@std@@PEAX@std@@@?$allocator@U_Container_proxy@std@@@std@@QEAA@AEBV?$allocator@U?$_Tree_node@U?$pair@$$CB_KUInternalRef@@@std@@PEAX@std@@@1@@Z
pdata	ENDS
;	COMDAT pdata
pdata	SEGMENT
$pdata$??$_Delete_plain_internal@V?$allocator@U_Container_proxy@std@@@std@@@std@@YAXAEAV?$allocator@U_Container_proxy@std@@@0@QEAU_Container_proxy@0@@Z DD imagerel $LN3
	DD	imagerel $LN3+89
	DD	imagerel $unwind$??$_Delete_plain_internal@V?$allocator@U_Container_proxy@std@@@std@@@std@@YAXAEAV?$allocator@U_Container_proxy@std@@@0@QEAU_Container_proxy@0@@Z
pdata	ENDS
;	COMDAT pdata
pdata	SEGMENT
$pdata$??0?$_Container_proxy_ptr12@V?$allocator@U_Container_proxy@std@@@std@@@std@@QEAA@AEAV?$allocator@U_Container_proxy@std@@@1@AEAU_Container_base12@1@@Z DD imagerel $LN3
	DD	imagerel $LN3+195
	DD	imagerel $unwind$??0?$_Container_proxy_ptr12@V?$allocator@U_Container_proxy@std@@@std@@@std@@QEAA@AEAV?$allocator@U_Container_proxy@std@@@1@AEAU_Container_base12@1@@Z
pdata	ENDS
;	COMDAT pdata
pdata	SEGMENT
$pdata$??1?$_Container_proxy_ptr12@V?$allocator@U_Container_proxy@std@@@std@@@std@@QEAA@XZ DD imagerel $LN4
	DD	imagerel $LN4+104
	DD	imagerel $unwind$??1?$_Container_proxy_ptr12@V?$allocator@U_Container_proxy@std@@@std@@@std@@QEAA@XZ
pdata	ENDS
;	COMDAT pdata
pdata	SEGMENT
$pdata$??$?0D@?$allocator@U_Container_proxy@std@@@std@@QEAA@AEBV?$allocator@D@1@@Z DD imagerel $LN3
	DD	imagerel $LN3+76
	DD	imagerel $unwind$??$?0D@?$allocator@U_Container_proxy@std@@@std@@QEAA@AEBV?$allocator@D@1@@Z
pdata	ENDS
;	COMDAT pdata
pdata	SEGMENT
$pdata$??$move@AEAV?$allocator@D@std@@@std@@YA$$QEAV?$allocator@D@0@AEAV10@@Z DD imagerel $LN3
	DD	imagerel $LN3+71
	DD	imagerel $unwind$??$move@AEAV?$allocator@D@std@@@std@@YA$$QEAV?$allocator@D@0@AEAV10@@Z
pdata	ENDS
;	COMDAT pdata
pdata	SEGMENT
$pdata$??$?0V?$allocator@D@std@@$$V@?$_Compressed_pair@V?$allocator@D@std@@V?$_String_val@U?$_Simple_types@D@std@@@2@$00@std@@QEAA@U_One_then_variadic_args_t@1@$$QEAV?$allocator@D@1@@Z DD imagerel $LN4
	DD	imagerel $LN4+107
	DD	imagerel $unwind$??$?0V?$allocator@D@std@@$$V@?$_Compressed_pair@V?$allocator@D@std@@V?$_String_val@U?$_Simple_types@D@std@@@2@$00@std@@QEAA@U_One_then_variadic_args_t@1@$$QEAV?$allocator@D@1@@Z
pdata	ENDS
;	COMDAT pdata
pdata	SEGMENT
$pdata$??$_Alloc_proxy@V?$allocator@U_Container_proxy@std@@@std@@@_Container_base12@std@@QEAAX$$QEAV?$allocator@U_Container_proxy@std@@@1@@Z DD imagerel $LN3
	DD	imagerel $LN3+156
	DD	imagerel $unwind$??$_Alloc_proxy@V?$allocator@U_Container_proxy@std@@@std@@@_Container_base12@std@@QEAAX$$QEAV?$allocator@U_Container_proxy@std@@@1@@Z
pdata	ENDS
;	COMDAT pdata
pdata	SEGMENT
$pdata$??$?0$$V@?$_Compressed_pair@V?$allocator@D@std@@V?$_String_val@U?$_Simple_types@D@std@@@2@$00@std@@QEAA@U_Zero_then_variadic_args_t@1@@Z DD imagerel $LN4
	DD	imagerel $LN4+102
	DD	imagerel $unwind$??$?0$$V@?$_Compressed_pair@V?$allocator@D@std@@V?$_String_val@U?$_Simple_types@D@std@@@2@$00@std@@QEAA@U_Zero_then_variadic_args_t@1@@Z
pdata	ENDS
;	COMDAT pdata
pdata	SEGMENT
$pdata$??$_Unfancy@U_Container_proxy@std@@@std@@YAPEAU_Container_proxy@0@PEAU10@@Z DD imagerel $LN3
	DD	imagerel $LN3+71
	DD	imagerel $unwind$??$_Unfancy@U_Container_proxy@std@@@std@@YAPEAU_Container_proxy@0@PEAU10@@Z
pdata	ENDS
;	COMDAT pdata
pdata	SEGMENT
$pdata$??$addressof@U_Container_base12@std@@@std@@YAPEAU_Container_base12@0@AEAU10@@Z DD imagerel $LN3
	DD	imagerel $LN3+71
	DD	imagerel $unwind$??$addressof@U_Container_base12@std@@@std@@YAPEAU_Container_base12@0@AEAU10@@Z
pdata	ENDS
;	COMDAT pdata
pdata	SEGMENT
$pdata$??$_Construct_in_place@U_Container_proxy@std@@PEAU_Container_base12@2@@std@@YAXAEAU_Container_proxy@0@$$QEAPEAU_Container_base12@0@@Z DD imagerel $LN3
	DD	imagerel $LN3+143
	DD	imagerel $unwind$??$_Construct_in_place@U_Container_proxy@std@@PEAU_Container_base12@2@@std@@YAXAEAU_Container_proxy@0@$$QEAPEAU_Container_base12@0@@Z
pdata	ENDS
;	COMDAT pdata
pdata	SEGMENT
$pdata$??$addressof@V?$_Tree_val@U?$_Tree_simple_types@U?$pair@$$CB_KUInternalRef@@@std@@@std@@@std@@@std@@YAPEAV?$_Tree_val@U?$_Tree_simple_types@U?$pair@$$CB_KUInternalRef@@@std@@@std@@@0@AEAV10@@Z DD imagerel $LN3
	DD	imagerel $LN3+71
	DD	imagerel $unwind$??$addressof@V?$_Tree_val@U?$_Tree_simple_types@U?$pair@$$CB_KUInternalRef@@@std@@@std@@@std@@@std@@YAPEAV?$_Tree_val@U?$_Tree_simple_types@U?$pair@$$CB_KUInternalRef@@@std@@@std@@@0@AEAV10@@Z
pdata	ENDS
;	COMDAT pdata
pdata	SEGMENT
$pdata$??$?0AEBU?$less@_K@std@@U_Zero_then_variadic_args_t@1@@?$_Compressed_pair@U?$less@_K@std@@V?$_Compressed_pair@V?$allocator@U?$_Tree_node@U?$pair@$$CB_KUInternalRef@@@std@@PEAX@std@@@std@@V?$_Tree_val@U?$_Tree_simple_types@U?$pair@$$CB_KUInternalRef@@@std@@@std@@@2@$00@2@$00@std@@QEAA@U_One_then_variadic_args_t@1@AEBU?$less@_K@1@$$QEAU_Zero_then_variadic_args_t@1@@Z DD imagerel $LN3
	DD	imagerel $LN3+138
	DD	imagerel $unwind$??$?0AEBU?$less@_K@std@@U_Zero_then_variadic_args_t@1@@?$_Compressed_pair@U?$less@_K@std@@V?$_Compressed_pair@V?$allocator@U?$_Tree_node@U?$pair@$$CB_KUInternalRef@@@std@@PEAX@std@@@std@@V?$_Tree_val@U?$_Tree_simple_types@U?$pair@$$CB_KUInternalRef@@@std@@@std@@@2@$00@2@$00@std@@QEAA@U_One_then_variadic_args_t@1@AEBU?$less@_K@1@$$QEAU_Zero_then_variadic_args_t@1@@Z
pdata	ENDS
;	COMDAT pdata
pdata	SEGMENT
$pdata$??$?0$$V@?$_Compressed_pair@V?$allocator@U?$_Tree_node@U?$pair@$$CB_KUInternalRef@@@std@@PEAX@std@@@std@@V?$_Tree_val@U?$_Tree_simple_types@U?$pair@$$CB_KUInternalRef@@@std@@@std@@@2@$00@std@@QEAA@U_Zero_then_variadic_args_t@1@@Z DD imagerel $LN3
	DD	imagerel $LN3+102
	DD	imagerel $unwind$??$?0$$V@?$_Compressed_pair@V?$allocator@U?$_Tree_node@U?$pair@$$CB_KUInternalRef@@@std@@PEAX@std@@@std@@V?$_Tree_val@U?$_Tree_simple_types@U?$pair@$$CB_KUInternalRef@@@std@@@std@@@2@$00@std@@QEAA@U_Zero_then_variadic_args_t@1@@Z
pdata	ENDS
;	COMDAT pdata
pdata	SEGMENT
$pdata$??$_Destroy_in_place@PEAD@std@@YAXAEAPEAD@Z DD imagerel $LN3
	DD	imagerel $LN3+65
	DD	imagerel $unwind$??$_Destroy_in_place@PEAD@std@@YAXAEAPEAD@Z
pdata	ENDS
;	COMDAT pdata
pdata	SEGMENT
$pdata$??R<lambda_66f57f934f28d61049862f64df852ff0>@@QEBAXQEAD_KQEBD@Z DD imagerel $LN3
	DD	imagerel $LN3+147
	DD	imagerel $unwind$??R<lambda_66f57f934f28d61049862f64df852ff0>@@QEBAXQEAD_KQEBD@Z
pdata	ENDS
;	COMDAT pdata
pdata	SEGMENT
$pdata$??$_Reallocate_for@V<lambda_66f57f934f28d61049862f64df852ff0>@@PEBD@?$basic_string@DU?$char_traits@D@std@@V?$allocator@D@2@@std@@AEAAAEAV01@_KV<lambda_66f57f934f28d61049862f64df852ff0>@@PEBD@Z DD imagerel $LN6
	DD	imagerel $LN6+374
	DD	imagerel $unwind$??$_Reallocate_for@V<lambda_66f57f934f28d61049862f64df852ff0>@@PEBD@?$basic_string@DU?$char_traits@D@std@@V?$allocator@D@2@@std@@AEAAAEAV01@_KV<lambda_66f57f934f28d61049862f64df852ff0>@@PEBD@Z
pdata	ENDS
;	COMDAT pdata
pdata	SEGMENT
$pdata$??R<lambda_65e615be2a453ca0576c979606f46740>@@QEBAXQEADQEBD_K12@Z DD imagerel $LN3
	DD	imagerel $LN3+202
	DD	imagerel $unwind$??R<lambda_65e615be2a453ca0576c979606f46740>@@QEBAXQEADQEBD_K12@Z
pdata	ENDS
;	COMDAT pdata
pdata	SEGMENT
$pdata$??$_Reallocate_grow_by@V<lambda_65e615be2a453ca0576c979606f46740>@@PEBD_K@?$basic_string@DU?$char_traits@D@std@@V?$allocator@D@2@@std@@AEAAAEAV01@_KV<lambda_65e615be2a453ca0576c979606f46740>@@PEBD_K@Z DD imagerel $LN6
	DD	imagerel $LN6+534
	DD	imagerel $unwind$??$_Reallocate_grow_by@V<lambda_65e615be2a453ca0576c979606f46740>@@PEBD_K@?$basic_string@DU?$char_traits@D@std@@V?$allocator@D@2@@std@@AEAAAEAV01@_KV<lambda_65e615be2a453ca0576c979606f46740>@@PEBD_K@Z
pdata	ENDS
;	COMDAT pdata
pdata	SEGMENT
$pdata$??$min@_K@std@@YAAEB_KAEB_K0@Z DD imagerel $LN5
	DD	imagerel $LN5+142
	DD	imagerel $unwind$??$min@_K@std@@YAAEB_KAEB_K0@Z
pdata	ENDS
;	COMDAT pdata
pdata	SEGMENT
$pdata$??$_Construct_in_place@PEADAEBQEAD@std@@YAXAEAPEADAEBQEAD@Z DD imagerel $LN3
	DD	imagerel $LN3+126
	DD	imagerel $unwind$??$_Construct_in_place@PEADAEBQEAD@std@@YAXAEAPEADAEBQEAD@Z
pdata	ENDS
;	COMDAT pdata
pdata	SEGMENT
$pdata$??$_Unfancy@D@std@@YAPEADPEAD@Z DD imagerel $LN3
	DD	imagerel $LN3+71
	DD	imagerel $unwind$??$_Unfancy@D@std@@YAPEADPEAD@Z
pdata	ENDS
;	COMDAT pdata
pdata	SEGMENT
$pdata$??$max@_K@std@@YAAEB_KAEB_K0@Z DD imagerel $LN5
	DD	imagerel $LN5+142
	DD	imagerel $unwind$??$max@_K@std@@YAAEB_KAEB_K0@Z
pdata	ENDS
;	COMDAT pdata
pdata	SEGMENT
$pdata$??$_Get_size_of_n@$0BA@@std@@YA_K_K@Z DD imagerel $LN4
	DD	imagerel $LN4+114
	DD	imagerel $unwind$??$_Get_size_of_n@$0BA@@std@@YA_K_K@Z
pdata	ENDS
;	COMDAT pdata
pdata	SEGMENT
$pdata$??$_Allocate@$0BA@U_Default_allocate_traits@std@@$0A@@std@@YAPEAX_K@Z DD imagerel $LN5
	DD	imagerel $LN5+117
	DD	imagerel $unwind$??$_Allocate@$0BA@U_Default_allocate_traits@std@@$0A@@std@@YAPEAX_K@Z
pdata	ENDS
;	COMDAT pdata
pdata	SEGMENT
$pdata$??$_Buyheadnode@V?$allocator@U?$_Tree_node@U?$pair@$$CB_KUInternalRef@@@std@@PEAX@std@@@std@@@?$_Tree_node@U?$pair@$$CB_KUInternalRef@@@std@@PEAX@std@@SAPEAU01@AEAV?$allocator@U?$_Tree_node@U?$pair@$$CB_KUInternalRef@@@std@@PEAX@std@@@1@@Z DD imagerel $LN3
	DD	imagerel $LN3+183
	DD	imagerel $unwind$??$_Buyheadnode@V?$allocator@U?$_Tree_node@U?$pair@$$CB_KUInternalRef@@@std@@PEAX@std@@@std@@@?$_Tree_node@U?$pair@$$CB_KUInternalRef@@@std@@PEAX@std@@SAPEAU01@AEAV?$allocator@U?$_Tree_node@U?$pair@$$CB_KUInternalRef@@@std@@PEAX@std@@@1@@Z
pdata	ENDS
;	COMDAT pdata
pdata	SEGMENT
$pdata$??$_Deallocate@$0BA@$0A@@std@@YAXPEAX_K@Z DD imagerel $LN4
	DD	imagerel $LN4+121
	DD	imagerel $unwind$??$_Deallocate@$0BA@$0A@@std@@YAXPEAX_K@Z
pdata	ENDS
;	COMDAT pdata
pdata	SEGMENT
$pdata$??$addressof@V?$_String_val@U?$_Simple_types@D@std@@@std@@@std@@YAPEAV?$_String_val@U?$_Simple_types@D@std@@@0@AEAV10@@Z DD imagerel $LN3
	DD	imagerel $LN3+71
	DD	imagerel $unwind$??$addressof@V?$_String_val@U?$_Simple_types@D@std@@@std@@@std@@YAPEAV?$_String_val@U?$_Simple_types@D@std@@@0@AEAV10@@Z
pdata	ENDS
;	COMDAT pdata
pdata	SEGMENT
$pdata$??$addressof@$$CBV?$_String_val@U?$_Simple_types@D@std@@@std@@@std@@YAPEBV?$_String_val@U?$_Simple_types@D@std@@@0@AEBV10@@Z DD imagerel $LN3
	DD	imagerel $LN3+71
	DD	imagerel $unwind$??$addressof@$$CBV?$_String_val@U?$_Simple_types@D@std@@@std@@@std@@YAPEBV?$_String_val@U?$_Simple_types@D@std@@@0@AEBV10@@Z
pdata	ENDS
;	COMDAT pdata
pdata	SEGMENT
$pdata$??$_Get_size_of_n@$00@std@@YA_K_K@Z DD imagerel $LN3
	DD	imagerel $LN3+75
	DD	imagerel $unwind$??$_Get_size_of_n@$00@std@@YA_K_K@Z
pdata	ENDS
;	COMDAT pdata
pdata	SEGMENT
$pdata$?store@?$_Atomic_storage@_K$07@std@@QEAAX_K@Z DD imagerel $LN3
	DD	imagerel $LN3+115
	DD	imagerel $unwind$?store@?$_Atomic_storage@_K$07@std@@QEAAX_K@Z
pdata	ENDS
;	COMDAT pdata
pdata	SEGMENT
$pdata$?store@?$_Atomic_storage@_K$07@std@@QEAAX_KW4memory_order@2@@Z DD imagerel $LN13
	DD	imagerel $LN13+311
	DD	imagerel $unwind$?store@?$_Atomic_storage@_K$07@std@@QEAAX_KW4memory_order@2@@Z
pdata	ENDS
;	COMDAT pdata
pdata	SEGMENT
$pdata$?load@?$_Atomic_storage@_K$07@std@@QEBA_KW4memory_order@2@@Z DD imagerel $LN3
	DD	imagerel $LN3+113
	DD	imagerel $unwind$?load@?$_Atomic_storage@_K$07@std@@QEBA_KW4memory_order@2@@Z
pdata	ENDS
;	COMDAT pdata
pdata	SEGMENT
$pdata$??$addressof@$$CBV_Iostream_error_category2@std@@@std@@YAPEBV_Iostream_error_category2@0@AEBV10@@Z DD imagerel $LN3
	DD	imagerel $LN3+71
	DD	imagerel $unwind$??$addressof@$$CBV_Iostream_error_category2@std@@@std@@YAPEBV_Iostream_error_category2@0@AEBV10@@Z
pdata	ENDS
;	COMDAT pdata
pdata	SEGMENT
$pdata$??$_Verify_range@D@std@@YAXQEBD0@Z DD imagerel $LN12
	DD	imagerel $LN12+202
	DD	imagerel $unwind$??$_Verify_range@D@std@@YAXQEBD0@Z
pdata	ENDS
;	COMDAT pdata
pdata	SEGMENT
$pdata$??R?$default_delete@V_Facet_base@std@@@std@@QEBAXPEAV_Facet_base@1@@Z DD imagerel $LN5
	DD	imagerel $LN5+151
	DD	imagerel $unwind$??R?$default_delete@V_Facet_base@std@@@std@@QEBAXPEAV_Facet_base@1@@Z
pdata	ENDS
;	COMDAT pdata
pdata	SEGMENT
$pdata$??1?$unique_ptr@V_Facet_base@std@@U?$default_delete@V_Facet_base@std@@@2@@std@@QEAA@XZ DD imagerel $LN4
	DD	imagerel $LN4+136
	DD	imagerel $unwind$??1?$unique_ptr@V_Facet_base@std@@U?$default_delete@V_Facet_base@std@@@2@@std@@QEAA@XZ
pdata	ENDS
;	COMDAT pdata
pdata	SEGMENT
$pdata$?release@?$unique_ptr@V_Facet_base@std@@U?$default_delete@V_Facet_base@std@@@2@@std@@QEAAPEAV_Facet_base@2@XZ DD imagerel $LN3
	DD	imagerel $LN3+98
	DD	imagerel $unwind$?release@?$unique_ptr@V_Facet_base@std@@U?$default_delete@V_Facet_base@std@@@2@@std@@QEAAPEAV_Facet_base@2@XZ
pdata	ENDS
;	COMDAT pdata
pdata	SEGMENT
$pdata$?_Get_first@?$_Compressed_pair@U?$default_delete@V_Facet_base@std@@@std@@PEAV_Facet_base@2@$00@std@@QEAAAEAU?$default_delete@V_Facet_base@std@@@2@XZ DD imagerel $LN3
	DD	imagerel $LN3+71
	DD	imagerel $unwind$?_Get_first@?$_Compressed_pair@U?$default_delete@V_Facet_base@std@@@std@@PEAV_Facet_base@2@$00@std@@QEAAAEAU?$default_delete@V_Facet_base@std@@@2@XZ
pdata	ENDS
;	COMDAT pdata
pdata	SEGMENT
$pdata$??$?0U?$default_delete@V_Facet_base@std@@@std@@$0A@@?$unique_ptr@V_Facet_base@std@@U?$default_delete@V_Facet_base@std@@@2@@std@@QEAA@PEAV_Facet_base@1@@Z DD imagerel $LN3
	DD	imagerel $LN3+116
	DD	imagerel $unwind$??$?0U?$default_delete@V_Facet_base@std@@@std@@$0A@@?$unique_ptr@V_Facet_base@std@@U?$default_delete@V_Facet_base@std@@@2@@std@@QEAA@PEAV_Facet_base@1@@Z
pdata	ENDS
;	COMDAT pdata
pdata	SEGMENT
$pdata$??0_Sentry_base@?$basic_ostream@DU?$char_traits@D@std@@@std@@QEAA@AEAV12@@Z DD imagerel $LN4
	DD	imagerel $LN4+170
	DD	imagerel $unwind$??0_Sentry_base@?$basic_ostream@DU?$char_traits@D@std@@@std@@QEAA@AEAV12@@Z
pdata	ENDS
;	COMDAT pdata
pdata	SEGMENT
$pdata$??1_Sentry_base@?$basic_ostream@DU?$char_traits@D@std@@@std@@QEAA@XZ DD imagerel $LN4
	DD	imagerel $LN4+142
	DD	imagerel $unwind$??1_Sentry_base@?$basic_ostream@DU?$char_traits@D@std@@@std@@QEAA@XZ
pdata	ENDS
;	COMDAT pdata
pdata	SEGMENT
$pdata$??0sentry@?$basic_ostream@DU?$char_traits@D@std@@@std@@QEAA@AEAV12@@Z DD imagerel $LN7
	DD	imagerel $LN7+277
	DD	imagerel $unwind$??0sentry@?$basic_ostream@DU?$char_traits@D@std@@@std@@QEAA@AEAV12@@Z
pdata	ENDS
;	COMDAT pdata
pdata	SEGMENT
$pdata$?dtor$0@?0???0sentry@?$basic_ostream@DU?$char_traits@D@std@@@std@@QEAA@AEAV12@@Z@4HA DD imagerel ?dtor$0@?0???0sentry@?$basic_ostream@DU?$char_traits@D@std@@@std@@QEAA@AEAV12@@Z@4HA
	DD	imagerel ?dtor$0@?0???0sentry@?$basic_ostream@DU?$char_traits@D@std@@@std@@QEAA@AEAV12@@Z@4HA+39
	DD	imagerel $unwind$?dtor$0@?0???0sentry@?$basic_ostream@DU?$char_traits@D@std@@@std@@QEAA@AEAV12@@Z@4HA
pdata	ENDS
;	COMDAT pdata
pdata	SEGMENT
$pdata$??1sentry@?$basic_ostream@DU?$char_traits@D@std@@@std@@QEAA@XZ DD imagerel $LN6
	DD	imagerel $LN6+138
	DD	imagerel $unwind$??1sentry@?$basic_ostream@DU?$char_traits@D@std@@@std@@QEAA@XZ
pdata	ENDS
;	COMDAT pdata
pdata	SEGMENT
$pdata$??Bsentry@?$basic_ostream@DU?$char_traits@D@std@@@std@@QEBA_NXZ DD imagerel $LN3
	DD	imagerel $LN3+75
	DD	imagerel $unwind$??Bsentry@?$basic_ostream@DU?$char_traits@D@std@@@std@@QEBA_NXZ
pdata	ENDS
;	COMDAT pdata
pdata	SEGMENT
$pdata$?pubsync@?$basic_streambuf@DU?$char_traits@D@std@@@std@@QEAAHXZ DD imagerel $LN3
	DD	imagerel $LN3+84
	DD	imagerel $unwind$?pubsync@?$basic_streambuf@DU?$char_traits@D@std@@@std@@QEAAHXZ
pdata	ENDS
;	COMDAT pdata
pdata	SEGMENT
$pdata$?sputc@?$basic_streambuf@DU?$char_traits@D@std@@@std@@QEAAHD@Z DD imagerel $LN5
	DD	imagerel $LN5+223
	DD	imagerel $unwind$?sputc@?$basic_streambuf@DU?$char_traits@D@std@@@std@@QEAAHD@Z
pdata	ENDS
;	COMDAT pdata
pdata	SEGMENT
$pdata$?sputn@?$basic_streambuf@DU?$char_traits@D@std@@@std@@QEAA_JPEBD_J@Z DD imagerel $LN3
	DD	imagerel $LN3+122
	DD	imagerel $unwind$?sputn@?$basic_streambuf@DU?$char_traits@D@std@@@std@@QEAA_JPEBD_J@Z
pdata	ENDS
;	COMDAT pdata
pdata	SEGMENT
$pdata$?_Pninc@?$basic_streambuf@DU?$char_traits@D@std@@@std@@IEAAPEADXZ DD imagerel $LN3
	DD	imagerel $LN3+151
	DD	imagerel $unwind$?_Pninc@?$basic_streambuf@DU?$char_traits@D@std@@@std@@IEAAPEADXZ
pdata	ENDS
;	COMDAT pdata
pdata	SEGMENT
$pdata$?_Pnavail@?$basic_streambuf@DU?$char_traits@D@std@@@std@@IEBA_JXZ DD imagerel $LN5
	DD	imagerel $LN5+119
	DD	imagerel $unwind$?_Pnavail@?$basic_streambuf@DU?$char_traits@D@std@@@std@@IEBA_JXZ
pdata	ENDS
;	COMDAT pdata
pdata	SEGMENT
$pdata$??$RoundUp@$07_K@@YA_K_K@Z DD imagerel ??$RoundUp@$07_K@@YA_K_K@Z
	DD	imagerel ??$RoundUp@$07_K@@YA_K_K@Z+128
	DD	imagerel $unwind$??$RoundUp@$07_K@@YA_K_K@Z
pdata	ENDS
;	COMDAT pdata
pdata	SEGMENT
$pdata$??$_Find_lower_bound@_K@?$_Tree@V?$_Tmap_traits@_KUInternalRef@@U?$less@_K@std@@V?$allocator@U?$pair@$$CB_KUInternalRef@@@std@@@3@$0A@@std@@@std@@IEBA?AU?$_Tree_find_result@PEAU?$_Tree_node@U?$pair@$$CB_KUInternalRef@@@std@@PEAX@std@@@1@AEB_K@Z DD imagerel $LN7
	DD	imagerel $LN7+336
	DD	imagerel $unwind$??$_Find_lower_bound@_K@?$_Tree@V?$_Tmap_traits@_KUInternalRef@@U?$less@_K@std@@V?$allocator@U?$pair@$$CB_KUInternalRef@@@std@@@3@$0A@@std@@@std@@IEBA?AU?$_Tree_find_result@PEAU?$_Tree_node@U?$pair@$$CB_KUInternalRef@@@std@@PEAX@std@@@1@AEB_K@Z
pdata	ENDS
;	COMDAT pdata
pdata	SEGMENT
$pdata$??$_Lower_bound_duplicate@_K@?$_Tree@V?$_Tmap_traits@_KUInternalRef@@U?$less@_K@std@@V?$allocator@U?$pair@$$CB_KUInternalRef@@@std@@@3@$0A@@std@@@std@@IEBA_NQEAU?$_Tree_node@U?$pair@$$CB_KUInternalRef@@@std@@PEAX@1@AEB_K@Z DD imagerel $LN5
	DD	imagerel $LN5+196
	DD	imagerel $unwind$??$_Lower_bound_duplicate@_K@?$_Tree@V?$_Tmap_traits@_KUInternalRef@@U?$less@_K@std@@V?$allocator@U?$pair@$$CB_KUInternalRef@@@std@@@3@$0A@@std@@@std@@IEBA_NQEAU?$_Tree_node@U?$pair@$$CB_KUInternalRef@@@std@@PEAX@1@AEB_K@Z
pdata	ENDS
;	COMDAT pdata
pdata	SEGMENT
$pdata$??$?0AEBQEAU?$_Tree_node@U?$pair@$$CB_KUInternalRef@@@std@@PEAX@std@@_N$0A@@?$pair@PEAU?$_Tree_node@U?$pair@$$CB_KUInternalRef@@@std@@PEAX@std@@_N@std@@QEAA@AEBQEAU?$_Tree_node@U?$pair@$$CB_KUInternalRef@@@std@@PEAX@1@$$QEA_N@Z DD imagerel $LN3
	DD	imagerel $LN3+131
	DD	imagerel $unwind$??$?0AEBQEAU?$_Tree_node@U?$pair@$$CB_KUInternalRef@@@std@@PEAX@std@@_N$0A@@?$pair@PEAU?$_Tree_node@U?$pair@$$CB_KUInternalRef@@@std@@PEAX@std@@_N@std@@QEAA@AEBQEAU?$_Tree_node@U?$pair@$$CB_KUInternalRef@@@std@@PEAX@1@$$QEA_N@Z
pdata	ENDS
;	COMDAT pdata
pdata	SEGMENT
$pdata$??$forward@AEB_K@std@@YAAEB_KAEB_K@Z DD imagerel $LN3
	DD	imagerel $LN3+71
	DD	imagerel $unwind$??$forward@AEB_K@std@@YAAEB_KAEB_K@Z
pdata	ENDS
;	COMDAT pdata
pdata	SEGMENT
$pdata$??$forward_as_tuple@AEB_K@std@@YA?AV?$tuple@AEB_K@0@AEB_K@Z DD imagerel $LN3
	DD	imagerel $LN3+103
	DD	imagerel $unwind$??$forward_as_tuple@AEB_K@std@@YA?AV?$tuple@AEB_K@0@AEB_K@Z
pdata	ENDS
;	COMDAT pdata
pdata	SEGMENT
$pdata$??0?$tuple@AEB_K@std@@QEAA@$$QEAV01@@Z DD imagerel $LN3
	DD	imagerel $LN3+115
	DD	imagerel $unwind$??0?$tuple@AEB_K@std@@QEAA@$$QEAV01@@Z
pdata	ENDS
;	COMDAT pdata
pdata	SEGMENT
$pdata$??$forward_as_tuple@$$V@std@@YA?AV?$tuple@$$V@0@XZ DD imagerel $LN3
	DD	imagerel $LN3+83
	DD	imagerel $unwind$??$forward_as_tuple@$$V@std@@YA?AV?$tuple@$$V@0@XZ
pdata	ENDS
;	COMDAT pdata
pdata	SEGMENT
$pdata$??0?$_Alloc_construct_ptr@V?$allocator@U?$_Tree_node@U?$pair@$$CB_KUInternalRef@@@std@@PEAX@std@@@std@@@std@@QEAA@AEAV?$allocator@U?$_Tree_node@U?$pair@$$CB_KUInternalRef@@@std@@PEAX@std@@@1@@Z DD imagerel $LN3
	DD	imagerel $LN3+108
	DD	imagerel $unwind$??0?$_Alloc_construct_ptr@V?$allocator@U?$_Tree_node@U?$pair@$$CB_KUInternalRef@@@std@@PEAX@std@@@std@@@std@@QEAA@AEAV?$allocator@U?$_Tree_node@U?$pair@$$CB_KUInternalRef@@@std@@PEAX@std@@@1@@Z
pdata	ENDS
;	COMDAT pdata
pdata	SEGMENT
$pdata$?_Release@?$_Alloc_construct_ptr@V?$allocator@U?$_Tree_node@U?$pair@$$CB_KUInternalRef@@@std@@PEAX@std@@@std@@@std@@QEAAPEAU?$_Tree_node@U?$pair@$$CB_KUInternalRef@@@std@@PEAX@2@XZ DD imagerel $LN3
	DD	imagerel $LN3+102
	DD	imagerel $unwind$?_Release@?$_Alloc_construct_ptr@V?$allocator@U?$_Tree_node@U?$pair@$$CB_KUInternalRef@@@std@@PEAX@std@@@std@@@std@@QEAAPEAU?$_Tree_node@U?$pair@$$CB_KUInternalRef@@@std@@PEAX@2@XZ
pdata	ENDS
;	COMDAT pdata
pdata	SEGMENT
$pdata$?_Allocate@?$_Alloc_construct_ptr@V?$allocator@U?$_Tree_node@U?$pair@$$CB_KUInternalRef@@@std@@PEAX@std@@@std@@@std@@QEAAXXZ DD imagerel $LN3
	DD	imagerel $LN3+124
	DD	imagerel $unwind$?_Allocate@?$_Alloc_construct_ptr@V?$allocator@U?$_Tree_node@U?$pair@$$CB_KUInternalRef@@@std@@PEAX@std@@@std@@@std@@QEAAXXZ
pdata	ENDS
;	COMDAT pdata
pdata	SEGMENT
$pdata$??1?$_Alloc_construct_ptr@V?$allocator@U?$_Tree_node@U?$pair@$$CB_KUInternalRef@@@std@@PEAX@std@@@std@@@std@@QEAA@XZ DD imagerel $LN4
	DD	imagerel $LN4+125
	DD	imagerel $unwind$??1?$_Alloc_construct_ptr@V?$allocator@U?$_Tree_node@U?$pair@$$CB_KUInternalRef@@@std@@PEAX@std@@@std@@@std@@QEAA@XZ
pdata	ENDS
;	COMDAT pdata
pdata	SEGMENT
$pdata$??0?$_Tree_temp_node_alloc@V?$allocator@U?$_Tree_node@U?$pair@$$CB_KUInternalRef@@@std@@PEAX@std@@@std@@@std@@QEAA@AEAV?$allocator@U?$_Tree_node@U?$pair@$$CB_KUInternalRef@@@std@@PEAX@std@@@1@@Z DD imagerel $LN4
	DD	imagerel $LN4+109
	DD	imagerel $unwind$??0?$_Tree_temp_node_alloc@V?$allocator@U?$_Tree_node@U?$pair@$$CB_KUInternalRef@@@std@@PEAX@std@@@std@@@std@@QEAA@AEAV?$allocator@U?$_Tree_node@U?$pair@$$CB_KUInternalRef@@@std@@PEAX@std@@@1@@Z
pdata	ENDS
;	COMDAT pdata
pdata	SEGMENT
$pdata$?dtor$0@?0???0?$_Tree_temp_node_alloc@V?$allocator@U?$_Tree_node@U?$pair@$$CB_KUInternalRef@@@std@@PEAX@std@@@std@@@std@@QEAA@AEAV?$allocator@U?$_Tree_node@U?$pair@$$CB_KUInternalRef@@@std@@PEAX@std@@@1@@Z@4HA DD imagerel ?dtor$0@?0???0?$_Tree_temp_node_alloc@V?$allocator@U?$_Tree_node@U?$pair@$$CB_KUInternalRef@@@std@@PEAX@std@@@std@@@std@@QEAA@AEAV?$allocator@U?$_Tree_node@U?$pair@$$CB_KUInternalRef@@@std@@PEAX@std@@@1@@Z@4HA
	DD	imagerel ?dtor$0@?0???0?$_Tree_temp_node_alloc@V?$allocator@U?$_Tree_node@U?$pair@$$CB_KUInternalRef@@@std@@PEAX@std@@@std@@@std@@QEAA@AEAV?$allocator@U?$_Tree_node@U?$pair@$$CB_KUInternalRef@@@std@@PEAX@std@@@1@@Z@4HA+39
	DD	imagerel $unwind$?dtor$0@?0???0?$_Tree_temp_node_alloc@V?$allocator@U?$_Tree_node@U?$pair@$$CB_KUInternalRef@@@std@@PEAX@std@@@std@@@std@@QEAA@AEAV?$allocator@U?$_Tree_node@U?$pair@$$CB_KUInternalRef@@@std@@PEAX@std@@@1@@Z@4HA
pdata	ENDS
;	COMDAT pdata
pdata	SEGMENT
$pdata$??1?$_Tree_temp_node_alloc@V?$allocator@U?$_Tree_node@U?$pair@$$CB_KUInternalRef@@@std@@PEAX@std@@@std@@@std@@QEAA@XZ DD imagerel $LN3
	DD	imagerel $LN3+64
	DD	imagerel $unwind$??1?$_Tree_temp_node_alloc@V?$allocator@U?$_Tree_node@U?$pair@$$CB_KUInternalRef@@@std@@PEAX@std@@@std@@@std@@QEAA@XZ
pdata	ENDS
;	COMDAT pdata
pdata	SEGMENT
$pdata$??1?$_Tree_temp_node@V?$allocator@U?$_Tree_node@U?$pair@$$CB_KUInternalRef@@@std@@PEAX@std@@@std@@@std@@QEAA@XZ DD imagerel $LN4
	DD	imagerel $LN4+226
	DD	imagerel $unwind$??1?$_Tree_temp_node@V?$allocator@U?$_Tree_node@U?$pair@$$CB_KUInternalRef@@@std@@PEAX@std@@@std@@@std@@QEAA@XZ
pdata	ENDS
;	COMDAT pdata
pdata	SEGMENT
$pdata$??$?0AEBUpiecewise_construct_t@std@@V?$tuple@AEB_K@1@V?$tuple@$$V@1@@?$_Tree_temp_node@V?$allocator@U?$_Tree_node@U?$pair@$$CB_KUInternalRef@@@std@@PEAX@std@@@std@@@std@@QEAA@AEAV?$allocator@U?$_Tree_node@U?$pair@$$CB_KUInternalRef@@@std@@PEAX@std@@@1@PEAU?$_Tree_node@U?$pair@$$CB_KUInternalRef@@@std@@PEAX@1@AEBUpiecewise_construct_t@1@$$QEAV?$tuple@AEB_K@1@$$QEAV?$tuple@$$V@1@@Z DD imagerel $LN4
	DD	imagerel $LN4+371
	DD	imagerel $unwind$??$?0AEBUpiecewise_construct_t@std@@V?$tuple@AEB_K@1@V?$tuple@$$V@1@@?$_Tree_temp_node@V?$allocator@U?$_Tree_node@U?$pair@$$CB_KUInternalRef@@@std@@PEAX@std@@@std@@@std@@QEAA@AEAV?$allocator@U?$_Tree_node@U?$pair@$$CB_KUInternalRef@@@std@@PEAX@std@@@1@PEAU?$_Tree_node@U?$pair@$$CB_KUInternalRef@@@std@@PEAX@1@AEBUpiecewise_construct_t@1@$$QEAV?$tuple@AEB_K@1@$$QEAV?$tuple@$$V@1@@Z
pdata	ENDS
;	COMDAT pdata
pdata	SEGMENT
$pdata$?dtor$0@?0???$?0AEBUpiecewise_construct_t@std@@V?$tuple@AEB_K@1@V?$tuple@$$V@1@@?$_Tree_temp_node@V?$allocator@U?$_Tree_node@U?$pair@$$CB_KUInternalRef@@@std@@PEAX@std@@@std@@@std@@QEAA@AEAV?$allocator@U?$_Tree_node@U?$pair@$$CB_KUInternalRef@@@std@@PEAX@std@@@1@PEAU?$_Tree_node@U?$pair@$$CB_KUInternalRef@@@std@@PEAX@1@AEBUpiecewise_construct_t@1@$$QEAV?$tuple@AEB_K@1@$$QEAV?$tuple@$$V@1@@Z@4HA DD imagerel ?dtor$0@?0???$?0AEBUpiecewise_construct_t@std@@V?$tuple@AEB_K@1@V?$tuple@$$V@1@@?$_Tree_temp_node@V?$allocator@U?$_Tree_node@U?$pair@$$CB_KUInternalRef@@@std@@PEAX@std@@@std@@@std@@QEAA@AEAV?$allocator@U?$_Tree_node@U?$pair@$$CB_KUInternalRef@@@std@@PEAX@std@@@1@PEAU?$_Tree_node@U?$pair@$$CB_KUInternalRef@@@std@@PEAX@1@AEBUpiecewise_construct_t@1@$$QEAV?$tuple@AEB_K@1@$$QEAV?$tuple@$$V@1@@Z@4HA
	DD	imagerel ?dtor$0@?0???$?0AEBUpiecewise_construct_t@std@@V?$tuple@AEB_K@1@V?$tuple@$$V@1@@?$_Tree_temp_node@V?$allocator@U?$_Tree_node@U?$pair@$$CB_KUInternalRef@@@std@@PEAX@std@@@std@@@std@@QEAA@AEAV?$allocator@U?$_Tree_node@U?$pair@$$CB_KUInternalRef@@@std@@PEAX@std@@@1@PEAU?$_Tree_node@U?$pair@$$CB_KUInternalRef@@@std@@PEAX@1@AEBUpiecewise_construct_t@1@$$QEAV?$tuple@AEB_K@1@$$QEAV?$tuple@$$V@1@@Z@4HA+39
	DD	imagerel $unwind$?dtor$0@?0???$?0AEBUpiecewise_construct_t@std@@V?$tuple@AEB_K@1@V?$tuple@$$V@1@@?$_Tree_temp_node@V?$allocator@U?$_Tree_node@U?$pair@$$CB_KUInternalRef@@@std@@PEAX@std@@@std@@@std@@QEAA@AEAV?$allocator@U?$_Tree_node@U?$pair@$$CB_KUInternalRef@@@std@@PEAX@std@@@1@PEAU?$_Tree_node@U?$pair@$$CB_KUInternalRef@@@std@@PEAX@1@AEBUpiecewise_construct_t@1@$$QEAV?$tuple@AEB_K@1@$$QEAV?$tuple@$$V@1@@Z@4HA
pdata	ENDS
;	COMDAT pdata
pdata	SEGMENT
$pdata$??$?0PEAU?$_Tree_node@U?$pair@$$CB_KUInternalRef@@@std@@PEAX@std@@_N$0A@@?$pair@PEAU?$_Tree_node@U?$pair@$$CB_KUInternalRef@@@std@@PEAX@std@@_N@std@@QEAA@$$QEAPEAU?$_Tree_node@U?$pair@$$CB_KUInternalRef@@@std@@PEAX@1@$$QEA_N@Z DD imagerel $LN3
	DD	imagerel $LN3+131
	DD	imagerel $unwind$??$?0PEAU?$_Tree_node@U?$pair@$$CB_KUInternalRef@@@std@@PEAX@std@@_N$0A@@?$pair@PEAU?$_Tree_node@U?$pair@$$CB_KUInternalRef@@@std@@PEAX@std@@_N@std@@QEAA@$$QEAPEAU?$_Tree_node@U?$pair@$$CB_KUInternalRef@@@std@@PEAX@1@$$QEA_N@Z
pdata	ENDS
;	COMDAT pdata
pdata	SEGMENT
$pdata$??$_Erase_tree@V?$allocator@U?$_Tree_node@U?$pair@$$CB_KUInternalRef@@@std@@PEAX@std@@@std@@@?$_Tree_val@U?$_Tree_simple_types@U?$pair@$$CB_KUInternalRef@@@std@@@std@@@std@@QEAAXAEAV?$allocator@U?$_Tree_node@U?$pair@$$CB_KUInternalRef@@@std@@PEAX@std@@@1@PEAU?$_Tree_node@U?$pair@$$CB_KUInternalRef@@@std@@PEAX@1@@Z DD imagerel $LN5
	DD	imagerel $LN5+158
	DD	imagerel $unwind$??$_Erase_tree@V?$allocator@U?$_Tree_node@U?$pair@$$CB_KUInternalRef@@@std@@PEAX@std@@@std@@@?$_Tree_val@U?$_Tree_simple_types@U?$pair@$$CB_KUInternalRef@@@std@@@std@@@std@@QEAAXAEAV?$allocator@U?$_Tree_node@U?$pair@$$CB_KUInternalRef@@@std@@PEAX@std@@@1@PEAU?$_Tree_node@U?$pair@$$CB_KUInternalRef@@@std@@PEAX@1@@Z
pdata	ENDS
;	COMDAT pdata
pdata	SEGMENT
$pdata$??$_Freenode0@V?$allocator@U?$_Tree_node@U?$pair@$$CB_KUInternalRef@@@std@@PEAX@std@@@std@@@?$_Tree_node@U?$pair@$$CB_KUInternalRef@@@std@@PEAX@std@@SAXAEAV?$allocator@U?$_Tree_node@U?$pair@$$CB_KUInternalRef@@@std@@PEAX@std@@@1@PEAU01@@Z DD imagerel $LN3
	DD	imagerel $LN3+148
	DD	imagerel $unwind$??$_Freenode0@V?$allocator@U?$_Tree_node@U?$pair@$$CB_KUInternalRef@@@std@@PEAX@std@@@std@@@?$_Tree_node@U?$pair@$$CB_KUInternalRef@@@std@@PEAX@std@@SAXAEAV?$allocator@U?$_Tree_node@U?$pair@$$CB_KUInternalRef@@@std@@PEAX@std@@@1@PEAU01@@Z
pdata	ENDS
;	COMDAT pdata
pdata	SEGMENT
$pdata$??$_Deallocate_plain@V?$allocator@U_Container_proxy@std@@@std@@@std@@YAXAEAV?$allocator@U_Container_proxy@std@@@0@QEAU_Container_proxy@0@@Z DD imagerel $LN3
	DD	imagerel $LN3+95
	DD	imagerel $unwind$??$_Deallocate_plain@V?$allocator@U_Container_proxy@std@@@std@@@std@@YAXAEAV?$allocator@U_Container_proxy@std@@@0@QEAU_Container_proxy@0@@Z
pdata	ENDS
;	COMDAT pdata
pdata	SEGMENT
$pdata$??$forward@V?$allocator@D@std@@@std@@YA$$QEAV?$allocator@D@0@AEAV10@@Z DD imagerel $LN3
	DD	imagerel $LN3+71
	DD	imagerel $unwind$??$forward@V?$allocator@D@std@@@std@@YA$$QEAV?$allocator@D@0@AEAV10@@Z
pdata	ENDS
;	COMDAT pdata
pdata	SEGMENT
$pdata$??$addressof@U_Container_proxy@std@@@std@@YAPEAU_Container_proxy@0@AEAU10@@Z DD imagerel $LN3
	DD	imagerel $LN3+71
	DD	imagerel $unwind$??$addressof@U_Container_proxy@std@@@std@@YAPEAU_Container_proxy@0@AEAU10@@Z
pdata	ENDS
;	COMDAT pdata
pdata	SEGMENT
$pdata$??$forward@PEAU_Container_base12@std@@@std@@YA$$QEAPEAU_Container_base12@0@AEAPEAU10@@Z DD imagerel $LN3
	DD	imagerel $LN3+71
	DD	imagerel $unwind$??$forward@PEAU_Container_base12@std@@@std@@YA$$QEAPEAU_Container_base12@0@AEAPEAU10@@Z
pdata	ENDS
;	COMDAT pdata
pdata	SEGMENT
$pdata$??$forward@AEBU?$less@_K@std@@@std@@YAAEBU?$less@_K@0@AEBU10@@Z DD imagerel $LN3
	DD	imagerel $LN3+71
	DD	imagerel $unwind$??$forward@AEBU?$less@_K@std@@@std@@YAAEBU?$less@_K@0@AEBU10@@Z
pdata	ENDS
;	COMDAT pdata
pdata	SEGMENT
$pdata$??$forward@U_Zero_then_variadic_args_t@std@@@std@@YA$$QEAU_Zero_then_variadic_args_t@0@AEAU10@@Z DD imagerel $LN3
	DD	imagerel $LN3+71
	DD	imagerel $unwind$??$forward@U_Zero_then_variadic_args_t@std@@@std@@YA$$QEAU_Zero_then_variadic_args_t@0@AEAU10@@Z
pdata	ENDS
;	COMDAT pdata
pdata	SEGMENT
$pdata$??$addressof@PEAD@std@@YAPEAPEADAEAPEAD@Z DD imagerel $LN3
	DD	imagerel $LN3+71
	DD	imagerel $unwind$??$addressof@PEAD@std@@YAPEAPEADAEAPEAD@Z
pdata	ENDS
;	COMDAT pdata
pdata	SEGMENT
$pdata$??$forward@AEBQEAD@std@@YAAEBQEADAEBQEAD@Z DD imagerel $LN3
	DD	imagerel $LN3+71
	DD	imagerel $unwind$??$forward@AEBQEAD@std@@YAAEBQEADAEBQEAD@Z
pdata	ENDS
;	COMDAT pdata
pdata	SEGMENT
$pdata$??$_Allocate_manually_vector_aligned@U_Default_allocate_traits@std@@@std@@YAPEAX_K@Z DD imagerel $LN13
	DD	imagerel $LN13+298
	DD	imagerel $unwind$??$_Allocate_manually_vector_aligned@U_Default_allocate_traits@std@@@std@@YAPEAX_K@Z
pdata	ENDS
;	COMDAT pdata
pdata	SEGMENT
$pdata$??$_Construct_in_place@PEAU?$_Tree_node@U?$pair@$$CB_KUInternalRef@@@std@@PEAX@std@@AEBQEAU12@@std@@YAXAEAPEAU?$_Tree_node@U?$pair@$$CB_KUInternalRef@@@std@@PEAX@0@AEBQEAU10@@Z DD imagerel $LN3
	DD	imagerel $LN3+126
	DD	imagerel $unwind$??$_Construct_in_place@PEAU?$_Tree_node@U?$pair@$$CB_KUInternalRef@@@std@@PEAX@std@@AEBQEAU12@@std@@YAXAEAPEAU?$_Tree_node@U?$pair@$$CB_KUInternalRef@@@std@@PEAX@0@AEBQEAU10@@Z
pdata	ENDS
;	COMDAT pdata
pdata	SEGMENT
$pdata$??$_Destroy_in_place@PEAU?$_Tree_node@U?$pair@$$CB_KUInternalRef@@@std@@PEAX@std@@@std@@YAXAEAPEAU?$_Tree_node@U?$pair@$$CB_KUInternalRef@@@std@@PEAX@0@@Z DD imagerel $LN3
	DD	imagerel $LN3+65
	DD	imagerel $unwind$??$_Destroy_in_place@PEAU?$_Tree_node@U?$pair@$$CB_KUInternalRef@@@std@@PEAX@std@@@std@@YAXAEAPEAU?$_Tree_node@U?$pair@$$CB_KUInternalRef@@@std@@PEAX@0@@Z
pdata	ENDS
;	COMDAT pdata
pdata	SEGMENT
$pdata$??$addressof@U?$pair@$$CB_KUInternalRef@@@std@@@std@@YAPEAU?$pair@$$CB_KUInternalRef@@@0@AEAU10@@Z DD imagerel $LN3
	DD	imagerel $LN3+71
	DD	imagerel $unwind$??$addressof@U?$pair@$$CB_KUInternalRef@@@std@@@std@@YAPEAU?$pair@$$CB_KUInternalRef@@@0@AEAU10@@Z
pdata	ENDS
;	COMDAT pdata
pdata	SEGMENT
$pdata$??$destroy@U?$pair@$$CB_KUInternalRef@@@std@@@?$_Default_allocator_traits@V?$allocator@U?$_Tree_node@U?$pair@$$CB_KUInternalRef@@@std@@PEAX@std@@@std@@@std@@SAXAEAV?$allocator@U?$_Tree_node@U?$pair@$$CB_KUInternalRef@@@std@@PEAX@std@@@1@QEAU?$pair@$$CB_KUInternalRef@@@1@@Z DD imagerel $LN3
	DD	imagerel $LN3+69
	DD	imagerel $unwind$??$destroy@U?$pair@$$CB_KUInternalRef@@@std@@@?$_Default_allocator_traits@V?$allocator@U?$_Tree_node@U?$pair@$$CB_KUInternalRef@@@std@@PEAX@std@@@std@@@std@@SAXAEAV?$allocator@U?$_Tree_node@U?$pair@$$CB_KUInternalRef@@@std@@PEAX@std@@@1@QEAU?$pair@$$CB_KUInternalRef@@@1@@Z
pdata	ENDS
;	COMDAT pdata
pdata	SEGMENT
$pdata$??$exchange@PEAU?$_Tree_node@U?$pair@$$CB_KUInternalRef@@@std@@PEAX@std@@$$T@std@@YAPEAU?$_Tree_node@U?$pair@$$CB_KUInternalRef@@@std@@PEAX@0@AEAPEAU10@$$QEA$$T@Z DD imagerel $LN3
	DD	imagerel $LN3+107
	DD	imagerel $unwind$??$exchange@PEAU?$_Tree_node@U?$pair@$$CB_KUInternalRef@@@std@@PEAX@std@@$$T@std@@YAPEAU?$_Tree_node@U?$pair@$$CB_KUInternalRef@@@std@@PEAX@0@AEAPEAU10@$$QEA$$T@Z
pdata	ENDS
;	COMDAT pdata
pdata	SEGMENT
$pdata$??$exchange@PEAV_Facet_base@std@@PEAV12@@std@@YAPEAV_Facet_base@0@AEAPEAV10@$$QEAPEAV10@@Z DD imagerel $LN3
	DD	imagerel $LN3+107
	DD	imagerel $unwind$??$exchange@PEAV_Facet_base@std@@PEAV12@@std@@YAPEAV_Facet_base@0@AEAPEAV10@$$QEAPEAV10@@Z
pdata	ENDS
;	COMDAT pdata
pdata	SEGMENT
$pdata$??$_Atomic_address_as@$$CB_J$$CBU?$_Atomic_padded@_K@std@@@std@@YAPED_JAEBU?$_Atomic_padded@_K@0@@Z DD imagerel $LN3
	DD	imagerel $LN3+71
	DD	imagerel $unwind$??$_Atomic_address_as@$$CB_J$$CBU?$_Atomic_padded@_K@std@@@std@@YAPED_JAEBU?$_Atomic_padded@_K@0@@Z
pdata	ENDS
;	COMDAT pdata
pdata	SEGMENT
$pdata$??$_Atomic_reinterpret_as@_J_K@std@@YA_JAEB_K@Z DD imagerel $LN3
	DD	imagerel $LN3+74
	DD	imagerel $unwind$??$_Atomic_reinterpret_as@_J_K@std@@YA_JAEB_K@Z
pdata	ENDS
;	COMDAT pdata
pdata	SEGMENT
$pdata$??$_Atomic_address_as@_JU?$_Atomic_padded@_K@std@@@std@@YAPEC_JAEAU?$_Atomic_padded@_K@0@@Z DD imagerel $LN3
	DD	imagerel $LN3+71
	DD	imagerel $unwind$??$_Atomic_address_as@_JU?$_Atomic_padded@_K@std@@@std@@YAPEC_JAEAU?$_Atomic_padded@_K@0@@Z
pdata	ENDS
;	COMDAT pdata
pdata	SEGMENT
$pdata$??$_Get_size_of_n@$0DA@@std@@YA_K_K@Z DD imagerel $LN4
	DD	imagerel $LN4+114
	DD	imagerel $unwind$??$_Get_size_of_n@$0DA@@std@@YA_K_K@Z
pdata	ENDS
;	COMDAT pdata
pdata	SEGMENT
$pdata$??$?0AEAPEAV_Facet_base@std@@@?$_Compressed_pair@U?$default_delete@V_Facet_base@std@@@std@@PEAV_Facet_base@2@$00@std@@QEAA@U_Zero_then_variadic_args_t@1@AEAPEAV_Facet_base@1@@Z DD imagerel $LN3
	DD	imagerel $LN3+105
	DD	imagerel $unwind$??$?0AEAPEAV_Facet_base@std@@@?$_Compressed_pair@U?$default_delete@V_Facet_base@std@@@std@@PEAV_Facet_base@2@$00@std@@QEAA@U_Zero_then_variadic_args_t@1@AEAPEAV_Facet_base@1@@Z
pdata	ENDS
;	COMDAT pdata
pdata	SEGMENT
$pdata$??$_Kfn@$$CB_KUInternalRef@@@?$_Tmap_traits@_KUInternalRef@@U?$less@_K@std@@V?$allocator@U?$pair@$$CB_KUInternalRef@@@std@@@3@$0A@@std@@SAAEB_KAEBU?$pair@$$CB_KUInternalRef@@@1@@Z DD imagerel $LN3
	DD	imagerel $LN3+71
	DD	imagerel $unwind$??$_Kfn@$$CB_KUInternalRef@@@?$_Tmap_traits@_KUInternalRef@@U?$less@_K@std@@V?$allocator@U?$pair@$$CB_KUInternalRef@@@std@@@3@$0A@@std@@SAAEB_KAEBU?$pair@$$CB_KUInternalRef@@@1@@Z
pdata	ENDS
;	COMDAT pdata
pdata	SEGMENT
$pdata$??$_Debug_lt_pred@AEBU?$less@_K@std@@AEB_KAEB_K$0A@@std@@YA_NAEBU?$less@_K@0@AEB_K1@Z DD imagerel $LN13
	DD	imagerel $LN13+269
	DD	imagerel $unwind$??$_Debug_lt_pred@AEBU?$less@_K@std@@AEB_KAEB_K$0A@@std@@YA_NAEBU?$less@_K@0@AEB_K1@Z
pdata	ENDS
;	COMDAT pdata
pdata	SEGMENT
$pdata$??$forward@AEBQEAU?$_Tree_node@U?$pair@$$CB_KUInternalRef@@@std@@PEAX@std@@@std@@YAAEBQEAU?$_Tree_node@U?$pair@$$CB_KUInternalRef@@@std@@PEAX@0@AEBQEAU10@@Z DD imagerel $LN3
	DD	imagerel $LN3+71
	DD	imagerel $unwind$??$forward@AEBQEAU?$_Tree_node@U?$pair@$$CB_KUInternalRef@@@std@@PEAX@std@@@std@@YAAEBQEAU?$_Tree_node@U?$pair@$$CB_KUInternalRef@@@std@@PEAX@0@AEBQEAU10@@Z
pdata	ENDS
;	COMDAT pdata
pdata	SEGMENT
$pdata$??$forward@_N@std@@YA$$QEA_NAEA_N@Z DD imagerel $LN3
	DD	imagerel $LN3+71
	DD	imagerel $unwind$??$forward@_N@std@@YA$$QEA_NAEA_N@Z
pdata	ENDS
;	COMDAT pdata
pdata	SEGMENT
$pdata$??$?0AEB_K$0A@@?$tuple@AEB_K@std@@QEAA@AEB_K@Z DD imagerel $LN3
	DD	imagerel $LN3+102
	DD	imagerel $unwind$??$?0AEB_K$0A@@?$tuple@AEB_K@std@@QEAA@AEB_K@Z
pdata	ENDS
;	COMDAT pdata
pdata	SEGMENT
$pdata$??$forward@AEBUpiecewise_construct_t@std@@@std@@YAAEBUpiecewise_construct_t@0@AEBU10@@Z DD imagerel $LN3
	DD	imagerel $LN3+71
	DD	imagerel $unwind$??$forward@AEBUpiecewise_construct_t@std@@@std@@YAAEBUpiecewise_construct_t@0@AEBU10@@Z
pdata	ENDS
;	COMDAT pdata
pdata	SEGMENT
$pdata$??$forward@V?$tuple@AEB_K@std@@@std@@YA$$QEAV?$tuple@AEB_K@0@AEAV10@@Z DD imagerel $LN3
	DD	imagerel $LN3+71
	DD	imagerel $unwind$??$forward@V?$tuple@AEB_K@std@@@std@@YA$$QEAV?$tuple@AEB_K@0@AEAV10@@Z
pdata	ENDS
;	COMDAT pdata
pdata	SEGMENT
$pdata$??$forward@V?$tuple@$$V@std@@@std@@YA$$QEAV?$tuple@$$V@0@AEAV10@@Z DD imagerel $LN3
	DD	imagerel $LN3+71
	DD	imagerel $unwind$??$forward@V?$tuple@$$V@std@@@std@@YA$$QEAV?$tuple@$$V@0@AEAV10@@Z
pdata	ENDS
;	COMDAT pdata
pdata	SEGMENT
$pdata$??$construct@U?$pair@$$CB_KUInternalRef@@@std@@AEBUpiecewise_construct_t@2@V?$tuple@AEB_K@2@V?$tuple@$$V@2@@?$_Default_allocator_traits@V?$allocator@U?$_Tree_node@U?$pair@$$CB_KUInternalRef@@@std@@PEAX@std@@@std@@@std@@SAXAEAV?$allocator@U?$_Tree_node@U?$pair@$$CB_KUInternalRef@@@std@@PEAX@std@@@1@QEAU?$pair@$$CB_KUInternalRef@@@1@AEBUpiecewise_construct_t@1@$$QEAV?$tuple@AEB_K@1@$$QEAV?$tuple@$$V@1@@Z DD imagerel $LN3
	DD	imagerel $LN3+279
	DD	imagerel $unwind$??$construct@U?$pair@$$CB_KUInternalRef@@@std@@AEBUpiecewise_construct_t@2@V?$tuple@AEB_K@2@V?$tuple@$$V@2@@?$_Default_allocator_traits@V?$allocator@U?$_Tree_node@U?$pair@$$CB_KUInternalRef@@@std@@PEAX@std@@@std@@@std@@SAXAEAV?$allocator@U?$_Tree_node@U?$pair@$$CB_KUInternalRef@@@std@@PEAX@std@@@1@QEAU?$pair@$$CB_KUInternalRef@@@1@AEBUpiecewise_construct_t@1@$$QEAV?$tuple@AEB_K@1@$$QEAV?$tuple@$$V@1@@Z
pdata	ENDS
;	COMDAT pdata
pdata	SEGMENT
$pdata$??$_Construct_in_place@PEAU?$_Tree_node@U?$pair@$$CB_KUInternalRef@@@std@@PEAX@std@@AEAPEAU12@@std@@YAXAEAPEAU?$_Tree_node@U?$pair@$$CB_KUInternalRef@@@std@@PEAX@0@0@Z DD imagerel $LN3
	DD	imagerel $LN3+126
	DD	imagerel $unwind$??$_Construct_in_place@PEAU?$_Tree_node@U?$pair@$$CB_KUInternalRef@@@std@@PEAX@std@@AEAPEAU12@@std@@YAXAEAPEAU?$_Tree_node@U?$pair@$$CB_KUInternalRef@@@std@@PEAX@0@0@Z
pdata	ENDS
;	COMDAT pdata
pdata	SEGMENT
$pdata$??$forward@PEAU?$_Tree_node@U?$pair@$$CB_KUInternalRef@@@std@@PEAX@std@@@std@@YA$$QEAPEAU?$_Tree_node@U?$pair@$$CB_KUInternalRef@@@std@@PEAX@0@AEAPEAU10@@Z DD imagerel $LN3
	DD	imagerel $LN3+71
	DD	imagerel $unwind$??$forward@PEAU?$_Tree_node@U?$pair@$$CB_KUInternalRef@@@std@@PEAX@std@@@std@@YA$$QEAPEAU?$_Tree_node@U?$pair@$$CB_KUInternalRef@@@std@@PEAX@0@AEAPEAU10@@Z
pdata	ENDS
;	COMDAT pdata
pdata	SEGMENT
$pdata$??$exchange@PEAU?$_Tree_node@U?$pair@$$CB_KUInternalRef@@@std@@PEAX@std@@AEAPEAU12@@std@@YAPEAU?$_Tree_node@U?$pair@$$CB_KUInternalRef@@@std@@PEAX@0@AEAPEAU10@0@Z DD imagerel $LN3
	DD	imagerel $LN3+107
	DD	imagerel $unwind$??$exchange@PEAU?$_Tree_node@U?$pair@$$CB_KUInternalRef@@@std@@PEAX@std@@AEAPEAU12@@std@@YAPEAU?$_Tree_node@U?$pair@$$CB_KUInternalRef@@@std@@PEAX@0@AEAPEAU10@0@Z
pdata	ENDS
;	COMDAT pdata
pdata	SEGMENT
$pdata$??$_Freenode@V?$allocator@U?$_Tree_node@U?$pair@$$CB_KUInternalRef@@@std@@PEAX@std@@@std@@@?$_Tree_node@U?$pair@$$CB_KUInternalRef@@@std@@PEAX@std@@SAXAEAV?$allocator@U?$_Tree_node@U?$pair@$$CB_KUInternalRef@@@std@@PEAX@std@@@1@PEAU01@@Z DD imagerel $LN3
	DD	imagerel $LN3+123
	DD	imagerel $unwind$??$_Freenode@V?$allocator@U?$_Tree_node@U?$pair@$$CB_KUInternalRef@@@std@@PEAX@std@@@std@@@?$_Tree_node@U?$pair@$$CB_KUInternalRef@@@std@@PEAX@std@@SAXAEAV?$allocator@U?$_Tree_node@U?$pair@$$CB_KUInternalRef@@@std@@PEAX@std@@@1@PEAU01@@Z
pdata	ENDS
;	COMDAT pdata
pdata	SEGMENT
$pdata$?deallocate@?$_Default_allocator_traits@V?$allocator@U_Container_proxy@std@@@std@@@std@@SAXAEAV?$allocator@U_Container_proxy@std@@@2@QEAU_Container_proxy@2@_K@Z DD imagerel $LN3
	DD	imagerel $LN3+97
	DD	imagerel $unwind$?deallocate@?$_Default_allocator_traits@V?$allocator@U_Container_proxy@std@@@std@@@std@@SAXAEAV?$allocator@U_Container_proxy@std@@@2@QEAU_Container_proxy@2@_K@Z
pdata	ENDS
;	COMDAT pdata
pdata	SEGMENT
$pdata$??$addressof@PEAU?$_Tree_node@U?$pair@$$CB_KUInternalRef@@@std@@PEAX@std@@@std@@YAPEAPEAU?$_Tree_node@U?$pair@$$CB_KUInternalRef@@@std@@PEAX@0@AEAPEAU10@@Z DD imagerel $LN3
	DD	imagerel $LN3+71
	DD	imagerel $unwind$??$addressof@PEAU?$_Tree_node@U?$pair@$$CB_KUInternalRef@@@std@@PEAX@std@@@std@@YAPEAPEAU?$_Tree_node@U?$pair@$$CB_KUInternalRef@@@std@@PEAX@0@AEAPEAU10@@Z
pdata	ENDS
;	COMDAT pdata
pdata	SEGMENT
$pdata$??$addressof@$$CBV?$_Tree_val@U?$_Tree_simple_types@U?$pair@$$CB_KUInternalRef@@@std@@@std@@@std@@@std@@YAPEBV?$_Tree_val@U?$_Tree_simple_types@U?$pair@$$CB_KUInternalRef@@@std@@@std@@@0@AEBV10@@Z DD imagerel $LN3
	DD	imagerel $LN3+71
	DD	imagerel $unwind$??$addressof@$$CBV?$_Tree_val@U?$_Tree_simple_types@U?$pair@$$CB_KUInternalRef@@@std@@@std@@@std@@@std@@YAPEBV?$_Tree_val@U?$_Tree_simple_types@U?$pair@$$CB_KUInternalRef@@@std@@@std@@@0@AEBV10@@Z
pdata	ENDS
;	COMDAT pdata
pdata	SEGMENT
$pdata$??$forward@AEAPEAV_Facet_base@std@@@std@@YAAEAPEAV_Facet_base@0@AEAPEAV10@@Z DD imagerel $LN3
	DD	imagerel $LN3+71
	DD	imagerel $unwind$??$forward@AEAPEAV_Facet_base@std@@@std@@YAAEAPEAV_Facet_base@0@AEAPEAV10@@Z
pdata	ENDS
;	COMDAT pdata
pdata	SEGMENT
$pdata$??$?0U_Exact_args_t@std@@AEB_K$$V$0A@@?$tuple@AEB_K@std@@QEAA@U_Exact_args_t@1@AEB_K@Z DD imagerel $LN3
	DD	imagerel $LN3+140
	DD	imagerel $unwind$??$?0U_Exact_args_t@std@@AEB_K$$V$0A@@?$tuple@AEB_K@std@@QEAA@U_Exact_args_t@1@AEB_K@Z
pdata	ENDS
;	COMDAT pdata
pdata	SEGMENT
$pdata$??$?0AEB_K$$Z$$V@?$pair@$$CB_KUInternalRef@@@std@@QEAA@Upiecewise_construct_t@1@V?$tuple@AEB_K@1@V?$tuple@$$V@1@@Z DD imagerel $LN3
	DD	imagerel $LN3+130
	DD	imagerel $unwind$??$?0AEB_K$$Z$$V@?$pair@$$CB_KUInternalRef@@@std@@QEAA@Upiecewise_construct_t@1@V?$tuple@AEB_K@1@V?$tuple@$$V@1@@Z
pdata	ENDS
;	COMDAT pdata
pdata	SEGMENT
$pdata$??$forward@AEAPEAU?$_Tree_node@U?$pair@$$CB_KUInternalRef@@@std@@PEAX@std@@@std@@YAAEAPEAU?$_Tree_node@U?$pair@$$CB_KUInternalRef@@@std@@PEAX@0@AEAPEAU10@@Z DD imagerel $LN3
	DD	imagerel $LN3+71
	DD	imagerel $unwind$??$forward@AEAPEAU?$_Tree_node@U?$pair@$$CB_KUInternalRef@@@std@@PEAX@std@@@std@@YAAEAPEAU?$_Tree_node@U?$pair@$$CB_KUInternalRef@@@std@@PEAX@0@AEAPEAU10@@Z
pdata	ENDS
;	COMDAT pdata
pdata	SEGMENT
$pdata$??$?0U_Exact_args_t@std@@$0A@@?$tuple@$$V@std@@QEAA@U_Exact_args_t@1@@Z DD imagerel $LN3
	DD	imagerel $LN3+75
	DD	imagerel $unwind$??$?0U_Exact_args_t@std@@$0A@@?$tuple@$$V@std@@QEAA@U_Exact_args_t@1@@Z
pdata	ENDS
;	COMDAT pdata
pdata	SEGMENT
$pdata$??$?0AEB_K@?$_Tuple_val@AEB_K@std@@QEAA@AEB_K@Z DD imagerel $LN3
	DD	imagerel $LN3+98
	DD	imagerel $unwind$??$?0AEB_K@?$_Tuple_val@AEB_K@std@@QEAA@AEB_K@Z
pdata	ENDS
;	COMDAT pdata
pdata	SEGMENT
$pdata$??$?0V?$tuple@AEB_K@std@@V?$tuple@$$V@1@$0A@$$Z$S@?$pair@$$CB_KUInternalRef@@@std@@QEAA@AEAV?$tuple@AEB_K@1@AEAV?$tuple@$$V@1@U?$integer_sequence@_K$0A@@1@U?$integer_sequence@_K$S@1@@Z DD imagerel $LN3
	DD	imagerel $LN3+142
	DD	imagerel $unwind$??$?0V?$tuple@AEB_K@std@@V?$tuple@$$V@1@$0A@$$Z$S@?$pair@$$CB_KUInternalRef@@@std@@QEAA@AEAV?$tuple@AEB_K@1@AEAV?$tuple@$$V@1@U?$integer_sequence@_K$0A@@1@U?$integer_sequence@_K$S@1@@Z
pdata	ENDS
;	COMDAT pdata
pdata	SEGMENT
$pdata$??$move@AEAV?$tuple@AEB_K@std@@@std@@YA$$QEAV?$tuple@AEB_K@0@AEAV10@@Z DD imagerel $LN3
	DD	imagerel $LN3+71
	DD	imagerel $unwind$??$move@AEAV?$tuple@AEB_K@std@@@std@@YA$$QEAV?$tuple@AEB_K@0@AEAV10@@Z
pdata	ENDS
;	COMDAT pdata
pdata	SEGMENT
$pdata$??$get@$0A@AEB_K@std@@YAAEB_K$$QEAV?$tuple@AEB_K@0@@Z DD imagerel $LN3
	DD	imagerel $LN3+74
	DD	imagerel $unwind$??$get@$0A@AEB_K@std@@YAAEB_K$$QEAV?$tuple@AEB_K@0@@Z
pdata	ENDS
;	COMDAT CRT$XCU
CRT$XCU	SEGMENT
??m_Map$initializer$@Allocator@@0P6AXXZEA@@3P6AXXZEA DQ FLAT:??__E?m_Map@Allocator@@0V?$map@_KUInternalRef@@U?$less@_K@std@@V?$allocator@U?$pair@$$CB_KUInternalRef@@@std@@@3@@std@@A@@YAXXZ ; ??m_Map$initializer$@Allocator@@0P6AXXZEA@@3P6AXXZEA
CRT$XCU	ENDS
;	COMDAT rtc$TMZ
rtc$TMZ	SEGMENT
_RTC_Shutdown.rtc$TMZ DQ FLAT:_RTC_Shutdown
rtc$TMZ	ENDS
;	COMDAT rtc$IMZ
rtc$IMZ	SEGMENT
_RTC_InitBase.rtc$IMZ DQ FLAT:_RTC_InitBase
rtc$IMZ	ENDS
;	COMDAT ??_R1A@?0A@EA@?$Ref@UStudent@@@@8
rdata$r	SEGMENT
??_R1A@?0A@EA@?$Ref@UStudent@@@@8 DD imagerel ??_R0?AV?$Ref@UStudent@@@@@8 ; Ref<Student>::`RTTI Base Class Descriptor at (0,-1,0,64)'
	DD	01H
	DD	00H
	DD	0ffffffffH
	DD	00H
	DD	040H
	DD	imagerel ??_R3?$Ref@UStudent@@@@8
rdata$r	ENDS
;	COMDAT ??_R2?$Ref@UStudent@@@@8
rdata$r	SEGMENT
??_R2?$Ref@UStudent@@@@8 DD imagerel ??_R1A@?0A@EA@?$Ref@UStudent@@@@8 ; Ref<Student>::`RTTI Base Class Array'
	DD	imagerel ??_R1A@?0A@EA@IRef@@8
	ORG $+3
rdata$r	ENDS
;	COMDAT ??_R3?$Ref@UStudent@@@@8
rdata$r	SEGMENT
??_R3?$Ref@UStudent@@@@8 DD 00H				; Ref<Student>::`RTTI Class Hierarchy Descriptor'
	DD	00H
	DD	02H
	DD	imagerel ??_R2?$Ref@UStudent@@@@8
rdata$r	ENDS
;	COMDAT ??_R0?AV?$Ref@UStudent@@@@@8
data$r	SEGMENT
??_R0?AV?$Ref@UStudent@@@@@8 DQ FLAT:??_7type_info@@6B@	; Ref<Student> `RTTI Type Descriptor'
	DQ	0000000000000000H
	DB	'.?AV?$Ref@UStudent@@@@', 00H
data$r	ENDS
;	COMDAT ??_R4?$Ref@UStudent@@@@6B@
rdata$r	SEGMENT
??_R4?$Ref@UStudent@@@@6B@ DD 01H			; Ref<Student>::`RTTI Complete Object Locator'
	DD	00H
	DD	00H
	DD	imagerel ??_R0?AV?$Ref@UStudent@@@@@8
	DD	imagerel ??_R3?$Ref@UStudent@@@@8
	DD	imagerel ??_R4?$Ref@UStudent@@@@6B@
rdata$r	ENDS
;	COMDAT ??_R1A@?0A@EA@IRef@@8
rdata$r	SEGMENT
??_R1A@?0A@EA@IRef@@8 DD imagerel ??_R0?AVIRef@@@8	; IRef::`RTTI Base Class Descriptor at (0,-1,0,64)'
	DD	00H
	DD	00H
	DD	0ffffffffH
	DD	00H
	DD	040H
	DD	imagerel ??_R3IRef@@8
rdata$r	ENDS
;	COMDAT ??_R2IRef@@8
rdata$r	SEGMENT
??_R2IRef@@8 DD	imagerel ??_R1A@?0A@EA@IRef@@8		; IRef::`RTTI Base Class Array'
	ORG $+3
rdata$r	ENDS
;	COMDAT ??_R3IRef@@8
rdata$r	SEGMENT
??_R3IRef@@8 DD	00H					; IRef::`RTTI Class Hierarchy Descriptor'
	DD	00H
	DD	01H
	DD	imagerel ??_R2IRef@@8
rdata$r	ENDS
;	COMDAT ??_R0?AVIRef@@@8
data$r	SEGMENT
??_R0?AVIRef@@@8 DQ FLAT:??_7type_info@@6B@		; IRef `RTTI Type Descriptor'
	DQ	0000000000000000H
	DB	'.?AVIRef@@', 00H
data$r	ENDS
;	COMDAT ??_R4IRef@@6B@
rdata$r	SEGMENT
??_R4IRef@@6B@ DD 01H					; IRef::`RTTI Complete Object Locator'
	DD	00H
	DD	00H
	DD	imagerel ??_R0?AVIRef@@@8
	DD	imagerel ??_R3IRef@@8
	DD	imagerel ??_R4IRef@@6B@
rdata$r	ENDS
;	COMDAT ??_R1A@?0A@EA@failure@ios_base@std@@8
rdata$r	SEGMENT
??_R1A@?0A@EA@failure@ios_base@std@@8 DD imagerel ??_R0?AVfailure@ios_base@std@@@8 ; std::ios_base::failure::`RTTI Base Class Descriptor at (0,-1,0,64)'
	DD	04H
	DD	00H
	DD	0ffffffffH
	DD	00H
	DD	040H
	DD	imagerel ??_R3failure@ios_base@std@@8
rdata$r	ENDS
;	COMDAT ??_R2failure@ios_base@std@@8
rdata$r	SEGMENT
??_R2failure@ios_base@std@@8 DD imagerel ??_R1A@?0A@EA@failure@ios_base@std@@8 ; std::ios_base::failure::`RTTI Base Class Array'
	DD	imagerel ??_R1A@?0A@EA@system_error@std@@8
	DD	imagerel ??_R1A@?0A@EA@_System_error@std@@8
	DD	imagerel ??_R1A@?0A@EA@runtime_error@std@@8
	DD	imagerel ??_R1A@?0A@EA@exception@std@@8
	ORG $+3
rdata$r	ENDS
;	COMDAT ??_R3failure@ios_base@std@@8
rdata$r	SEGMENT
??_R3failure@ios_base@std@@8 DD 00H			; std::ios_base::failure::`RTTI Class Hierarchy Descriptor'
	DD	00H
	DD	05H
	DD	imagerel ??_R2failure@ios_base@std@@8
rdata$r	ENDS
;	COMDAT ??_R4failure@ios_base@std@@6B@
rdata$r	SEGMENT
??_R4failure@ios_base@std@@6B@ DD 01H			; std::ios_base::failure::`RTTI Complete Object Locator'
	DD	00H
	DD	00H
	DD	imagerel ??_R0?AVfailure@ios_base@std@@@8
	DD	imagerel ??_R3failure@ios_base@std@@8
	DD	imagerel ??_R4failure@ios_base@std@@6B@
rdata$r	ENDS
;	COMDAT ??_R1A@?0A@EA@?$ctype@D@std@@8
rdata$r	SEGMENT
??_R1A@?0A@EA@?$ctype@D@std@@8 DD imagerel ??_R0?AV?$ctype@D@std@@@8 ; std::ctype<char>::`RTTI Base Class Descriptor at (0,-1,0,64)'
	DD	04H
	DD	00H
	DD	0ffffffffH
	DD	00H
	DD	040H
	DD	imagerel ??_R3?$ctype@D@std@@8
rdata$r	ENDS
;	COMDAT ??_R2?$ctype@D@std@@8
rdata$r	SEGMENT
??_R2?$ctype@D@std@@8 DD imagerel ??_R1A@?0A@EA@?$ctype@D@std@@8 ; std::ctype<char>::`RTTI Base Class Array'
	DD	imagerel ??_R1A@?0A@EA@ctype_base@std@@8
	DD	imagerel ??_R1A@?0A@EA@facet@locale@std@@8
	DD	imagerel ??_R1A@?0A@EA@_Facet_base@std@@8
	DD	imagerel ??_R17?0A@EA@_Crt_new_delete@std@@8
	ORG $+3
rdata$r	ENDS
;	COMDAT ??_R3?$ctype@D@std@@8
rdata$r	SEGMENT
??_R3?$ctype@D@std@@8 DD 00H				; std::ctype<char>::`RTTI Class Hierarchy Descriptor'
	DD	01H
	DD	05H
	DD	imagerel ??_R2?$ctype@D@std@@8
rdata$r	ENDS
;	COMDAT ??_R0?AV?$ctype@D@std@@@8
data$r	SEGMENT
??_R0?AV?$ctype@D@std@@@8 DQ FLAT:??_7type_info@@6B@	; std::ctype<char> `RTTI Type Descriptor'
	DQ	0000000000000000H
	DB	'.?AV?$ctype@D@std@@', 00H
data$r	ENDS
;	COMDAT ??_R4?$ctype@D@std@@6B@
rdata$r	SEGMENT
??_R4?$ctype@D@std@@6B@ DD 01H				; std::ctype<char>::`RTTI Complete Object Locator'
	DD	00H
	DD	00H
	DD	imagerel ??_R0?AV?$ctype@D@std@@@8
	DD	imagerel ??_R3?$ctype@D@std@@8
	DD	imagerel ??_R4?$ctype@D@std@@6B@
rdata$r	ENDS
;	COMDAT ??_R1A@?0A@EA@ctype_base@std@@8
rdata$r	SEGMENT
??_R1A@?0A@EA@ctype_base@std@@8 DD imagerel ??_R0?AUctype_base@std@@@8 ; std::ctype_base::`RTTI Base Class Descriptor at (0,-1,0,64)'
	DD	03H
	DD	00H
	DD	0ffffffffH
	DD	00H
	DD	040H
	DD	imagerel ??_R3ctype_base@std@@8
rdata$r	ENDS
;	COMDAT ??_R2ctype_base@std@@8
rdata$r	SEGMENT
??_R2ctype_base@std@@8 DD imagerel ??_R1A@?0A@EA@ctype_base@std@@8 ; std::ctype_base::`RTTI Base Class Array'
	DD	imagerel ??_R1A@?0A@EA@facet@locale@std@@8
	DD	imagerel ??_R1A@?0A@EA@_Facet_base@std@@8
	DD	imagerel ??_R17?0A@EA@_Crt_new_delete@std@@8
	ORG $+3
rdata$r	ENDS
;	COMDAT ??_R3ctype_base@std@@8
rdata$r	SEGMENT
??_R3ctype_base@std@@8 DD 00H				; std::ctype_base::`RTTI Class Hierarchy Descriptor'
	DD	01H
	DD	04H
	DD	imagerel ??_R2ctype_base@std@@8
rdata$r	ENDS
;	COMDAT ??_R0?AUctype_base@std@@@8
data$r	SEGMENT
??_R0?AUctype_base@std@@@8 DQ FLAT:??_7type_info@@6B@	; std::ctype_base `RTTI Type Descriptor'
	DQ	0000000000000000H
	DB	'.?AUctype_base@std@@', 00H
data$r	ENDS
;	COMDAT ??_R4ctype_base@std@@6B@
rdata$r	SEGMENT
??_R4ctype_base@std@@6B@ DD 01H				; std::ctype_base::`RTTI Complete Object Locator'
	DD	00H
	DD	00H
	DD	imagerel ??_R0?AUctype_base@std@@@8
	DD	imagerel ??_R3ctype_base@std@@8
	DD	imagerel ??_R4ctype_base@std@@6B@
rdata$r	ENDS
;	COMDAT ??_R4facet@locale@std@@6B@
rdata$r	SEGMENT
??_R4facet@locale@std@@6B@ DD 01H			; std::locale::facet::`RTTI Complete Object Locator'
	DD	00H
	DD	00H
	DD	imagerel ??_R0?AVfacet@locale@std@@@8
	DD	imagerel ??_R3facet@locale@std@@8
	DD	imagerel ??_R4facet@locale@std@@6B@
rdata$r	ENDS
;	COMDAT ??_R1A@?0A@EA@_Crt_new_delete@std@@8
rdata$r	SEGMENT
??_R1A@?0A@EA@_Crt_new_delete@std@@8 DD imagerel ??_R0?AU_Crt_new_delete@std@@@8 ; std::_Crt_new_delete::`RTTI Base Class Descriptor at (0,-1,0,64)'
	DD	00H
	DD	00H
	DD	0ffffffffH
	DD	00H
	DD	040H
	DD	imagerel ??_R3_Crt_new_delete@std@@8
rdata$r	ENDS
;	COMDAT ??_R2_Crt_new_delete@std@@8
rdata$r	SEGMENT
??_R2_Crt_new_delete@std@@8 DD imagerel ??_R1A@?0A@EA@_Crt_new_delete@std@@8 ; std::_Crt_new_delete::`RTTI Base Class Array'
	ORG $+3
rdata$r	ENDS
;	COMDAT ??_R3_Crt_new_delete@std@@8
rdata$r	SEGMENT
??_R3_Crt_new_delete@std@@8 DD 00H			; std::_Crt_new_delete::`RTTI Class Hierarchy Descriptor'
	DD	00H
	DD	01H
	DD	imagerel ??_R2_Crt_new_delete@std@@8
rdata$r	ENDS
;	COMDAT ??_R0?AU_Crt_new_delete@std@@@8
data$r	SEGMENT
??_R0?AU_Crt_new_delete@std@@@8 DQ FLAT:??_7type_info@@6B@ ; std::_Crt_new_delete `RTTI Type Descriptor'
	DQ	0000000000000000H
	DB	'.?AU_Crt_new_delete@std@@', 00H
data$r	ENDS
;	COMDAT ??_R17?0A@EA@_Crt_new_delete@std@@8
rdata$r	SEGMENT
??_R17?0A@EA@_Crt_new_delete@std@@8 DD imagerel ??_R0?AU_Crt_new_delete@std@@@8 ; std::_Crt_new_delete::`RTTI Base Class Descriptor at (8,-1,0,64)'
	DD	00H
	DD	08H
	DD	0ffffffffH
	DD	00H
	DD	040H
	DD	imagerel ??_R3_Crt_new_delete@std@@8
rdata$r	ENDS
;	COMDAT ??_R2facet@locale@std@@8
rdata$r	SEGMENT
??_R2facet@locale@std@@8 DD imagerel ??_R1A@?0A@EA@facet@locale@std@@8 ; std::locale::facet::`RTTI Base Class Array'
	DD	imagerel ??_R1A@?0A@EA@_Facet_base@std@@8
	DD	imagerel ??_R17?0A@EA@_Crt_new_delete@std@@8
	ORG $+3
rdata$r	ENDS
;	COMDAT ??_R3facet@locale@std@@8
rdata$r	SEGMENT
??_R3facet@locale@std@@8 DD 00H				; std::locale::facet::`RTTI Class Hierarchy Descriptor'
	DD	01H
	DD	03H
	DD	imagerel ??_R2facet@locale@std@@8
rdata$r	ENDS
;	COMDAT ??_R0?AVfacet@locale@std@@@8
data$r	SEGMENT
??_R0?AVfacet@locale@std@@@8 DQ FLAT:??_7type_info@@6B@	; std::locale::facet `RTTI Type Descriptor'
	DQ	0000000000000000H
	DB	'.?AVfacet@locale@std@@', 00H
data$r	ENDS
;	COMDAT ??_R1A@?0A@EA@facet@locale@std@@8
rdata$r	SEGMENT
??_R1A@?0A@EA@facet@locale@std@@8 DD imagerel ??_R0?AVfacet@locale@std@@@8 ; std::locale::facet::`RTTI Base Class Descriptor at (0,-1,0,64)'
	DD	02H
	DD	00H
	DD	0ffffffffH
	DD	00H
	DD	040H
	DD	imagerel ??_R3facet@locale@std@@8
rdata$r	ENDS
;	COMDAT ??_R1A@?0A@EA@_Facet_base@std@@8
rdata$r	SEGMENT
??_R1A@?0A@EA@_Facet_base@std@@8 DD imagerel ??_R0?AV_Facet_base@std@@@8 ; std::_Facet_base::`RTTI Base Class Descriptor at (0,-1,0,64)'
	DD	00H
	DD	00H
	DD	0ffffffffH
	DD	00H
	DD	040H
	DD	imagerel ??_R3_Facet_base@std@@8
rdata$r	ENDS
;	COMDAT ??_R2_Facet_base@std@@8
rdata$r	SEGMENT
??_R2_Facet_base@std@@8 DD imagerel ??_R1A@?0A@EA@_Facet_base@std@@8 ; std::_Facet_base::`RTTI Base Class Array'
	ORG $+3
rdata$r	ENDS
;	COMDAT ??_R3_Facet_base@std@@8
rdata$r	SEGMENT
??_R3_Facet_base@std@@8 DD 00H				; std::_Facet_base::`RTTI Class Hierarchy Descriptor'
	DD	00H
	DD	01H
	DD	imagerel ??_R2_Facet_base@std@@8
rdata$r	ENDS
;	COMDAT ??_R0?AV_Facet_base@std@@@8
data$r	SEGMENT
??_R0?AV_Facet_base@std@@@8 DQ FLAT:??_7type_info@@6B@	; std::_Facet_base `RTTI Type Descriptor'
	DQ	0000000000000000H
	DB	'.?AV_Facet_base@std@@', 00H
data$r	ENDS
;	COMDAT ??_R4_Facet_base@std@@6B@
rdata$r	SEGMENT
??_R4_Facet_base@std@@6B@ DD 01H			; std::_Facet_base::`RTTI Complete Object Locator'
	DD	00H
	DD	00H
	DD	imagerel ??_R0?AV_Facet_base@std@@@8
	DD	imagerel ??_R3_Facet_base@std@@8
	DD	imagerel ??_R4_Facet_base@std@@6B@
rdata$r	ENDS
;	COMDAT ??_R1A@?0A@EA@bad_cast@std@@8
rdata$r	SEGMENT
??_R1A@?0A@EA@bad_cast@std@@8 DD imagerel ??_R0?AVbad_cast@std@@@8 ; std::bad_cast::`RTTI Base Class Descriptor at (0,-1,0,64)'
	DD	01H
	DD	00H
	DD	0ffffffffH
	DD	00H
	DD	040H
	DD	imagerel ??_R3bad_cast@std@@8
rdata$r	ENDS
;	COMDAT ??_R2bad_cast@std@@8
rdata$r	SEGMENT
??_R2bad_cast@std@@8 DD imagerel ??_R1A@?0A@EA@bad_cast@std@@8 ; std::bad_cast::`RTTI Base Class Array'
	DD	imagerel ??_R1A@?0A@EA@exception@std@@8
	ORG $+3
rdata$r	ENDS
;	COMDAT ??_R3bad_cast@std@@8
rdata$r	SEGMENT
??_R3bad_cast@std@@8 DD 00H				; std::bad_cast::`RTTI Class Hierarchy Descriptor'
	DD	00H
	DD	02H
	DD	imagerel ??_R2bad_cast@std@@8
rdata$r	ENDS
;	COMDAT ??_R4bad_cast@std@@6B@
rdata$r	SEGMENT
??_R4bad_cast@std@@6B@ DD 01H				; std::bad_cast::`RTTI Complete Object Locator'
	DD	00H
	DD	00H
	DD	imagerel ??_R0?AVbad_cast@std@@@8
	DD	imagerel ??_R3bad_cast@std@@8
	DD	imagerel ??_R4bad_cast@std@@6B@
rdata$r	ENDS
;	COMDAT ??_R1A@?0A@EA@_Iostream_error_category2@std@@8
rdata$r	SEGMENT
??_R1A@?0A@EA@_Iostream_error_category2@std@@8 DD imagerel ??_R0?AV_Iostream_error_category2@std@@@8 ; std::_Iostream_error_category2::`RTTI Base Class Descriptor at (0,-1,0,64)'
	DD	01H
	DD	00H
	DD	0ffffffffH
	DD	00H
	DD	040H
	DD	imagerel ??_R3_Iostream_error_category2@std@@8
rdata$r	ENDS
;	COMDAT ??_R2_Iostream_error_category2@std@@8
rdata$r	SEGMENT
??_R2_Iostream_error_category2@std@@8 DD imagerel ??_R1A@?0A@EA@_Iostream_error_category2@std@@8 ; std::_Iostream_error_category2::`RTTI Base Class Array'
	DD	imagerel ??_R1A@?0A@EA@error_category@std@@8
	ORG $+3
rdata$r	ENDS
;	COMDAT ??_R3_Iostream_error_category2@std@@8
rdata$r	SEGMENT
??_R3_Iostream_error_category2@std@@8 DD 00H		; std::_Iostream_error_category2::`RTTI Class Hierarchy Descriptor'
	DD	00H
	DD	02H
	DD	imagerel ??_R2_Iostream_error_category2@std@@8
rdata$r	ENDS
;	COMDAT ??_R0?AV_Iostream_error_category2@std@@@8
data$r	SEGMENT
??_R0?AV_Iostream_error_category2@std@@@8 DQ FLAT:??_7type_info@@6B@ ; std::_Iostream_error_category2 `RTTI Type Descriptor'
	DQ	0000000000000000H
	DB	'.?AV_Iostream_error_category2@std@@', 00H
data$r	ENDS
;	COMDAT ??_R4_Iostream_error_category2@std@@6B@
rdata$r	SEGMENT
??_R4_Iostream_error_category2@std@@6B@ DD 01H		; std::_Iostream_error_category2::`RTTI Complete Object Locator'
	DD	00H
	DD	00H
	DD	imagerel ??_R0?AV_Iostream_error_category2@std@@@8
	DD	imagerel ??_R3_Iostream_error_category2@std@@8
	DD	imagerel ??_R4_Iostream_error_category2@std@@6B@
rdata$r	ENDS
;	COMDAT ??_R1A@?0A@EA@system_error@std@@8
rdata$r	SEGMENT
??_R1A@?0A@EA@system_error@std@@8 DD imagerel ??_R0?AVsystem_error@std@@@8 ; std::system_error::`RTTI Base Class Descriptor at (0,-1,0,64)'
	DD	03H
	DD	00H
	DD	0ffffffffH
	DD	00H
	DD	040H
	DD	imagerel ??_R3system_error@std@@8
rdata$r	ENDS
;	COMDAT ??_R2system_error@std@@8
rdata$r	SEGMENT
??_R2system_error@std@@8 DD imagerel ??_R1A@?0A@EA@system_error@std@@8 ; std::system_error::`RTTI Base Class Array'
	DD	imagerel ??_R1A@?0A@EA@_System_error@std@@8
	DD	imagerel ??_R1A@?0A@EA@runtime_error@std@@8
	DD	imagerel ??_R1A@?0A@EA@exception@std@@8
	ORG $+3
rdata$r	ENDS
;	COMDAT ??_R3system_error@std@@8
rdata$r	SEGMENT
??_R3system_error@std@@8 DD 00H				; std::system_error::`RTTI Class Hierarchy Descriptor'
	DD	00H
	DD	04H
	DD	imagerel ??_R2system_error@std@@8
rdata$r	ENDS
;	COMDAT ??_R4system_error@std@@6B@
rdata$r	SEGMENT
??_R4system_error@std@@6B@ DD 01H			; std::system_error::`RTTI Complete Object Locator'
	DD	00H
	DD	00H
	DD	imagerel ??_R0?AVsystem_error@std@@@8
	DD	imagerel ??_R3system_error@std@@8
	DD	imagerel ??_R4system_error@std@@6B@
rdata$r	ENDS
;	COMDAT ??_R1A@?0A@EA@_System_error@std@@8
rdata$r	SEGMENT
??_R1A@?0A@EA@_System_error@std@@8 DD imagerel ??_R0?AV_System_error@std@@@8 ; std::_System_error::`RTTI Base Class Descriptor at (0,-1,0,64)'
	DD	02H
	DD	00H
	DD	0ffffffffH
	DD	00H
	DD	040H
	DD	imagerel ??_R3_System_error@std@@8
rdata$r	ENDS
;	COMDAT ??_R2_System_error@std@@8
rdata$r	SEGMENT
??_R2_System_error@std@@8 DD imagerel ??_R1A@?0A@EA@_System_error@std@@8 ; std::_System_error::`RTTI Base Class Array'
	DD	imagerel ??_R1A@?0A@EA@runtime_error@std@@8
	DD	imagerel ??_R1A@?0A@EA@exception@std@@8
	ORG $+3
rdata$r	ENDS
;	COMDAT ??_R3_System_error@std@@8
rdata$r	SEGMENT
??_R3_System_error@std@@8 DD 00H			; std::_System_error::`RTTI Class Hierarchy Descriptor'
	DD	00H
	DD	03H
	DD	imagerel ??_R2_System_error@std@@8
rdata$r	ENDS
;	COMDAT ??_R4_System_error@std@@6B@
rdata$r	SEGMENT
??_R4_System_error@std@@6B@ DD 01H			; std::_System_error::`RTTI Complete Object Locator'
	DD	00H
	DD	00H
	DD	imagerel ??_R0?AV_System_error@std@@@8
	DD	imagerel ??_R3_System_error@std@@8
	DD	imagerel ??_R4_System_error@std@@6B@
rdata$r	ENDS
;	COMDAT ??_R1A@?0A@EA@error_category@std@@8
rdata$r	SEGMENT
??_R1A@?0A@EA@error_category@std@@8 DD imagerel ??_R0?AVerror_category@std@@@8 ; std::error_category::`RTTI Base Class Descriptor at (0,-1,0,64)'
	DD	00H
	DD	00H
	DD	0ffffffffH
	DD	00H
	DD	040H
	DD	imagerel ??_R3error_category@std@@8
rdata$r	ENDS
;	COMDAT ??_R2error_category@std@@8
rdata$r	SEGMENT
??_R2error_category@std@@8 DD imagerel ??_R1A@?0A@EA@error_category@std@@8 ; std::error_category::`RTTI Base Class Array'
	ORG $+3
rdata$r	ENDS
;	COMDAT ??_R3error_category@std@@8
rdata$r	SEGMENT
??_R3error_category@std@@8 DD 00H			; std::error_category::`RTTI Class Hierarchy Descriptor'
	DD	00H
	DD	01H
	DD	imagerel ??_R2error_category@std@@8
rdata$r	ENDS
;	COMDAT ??_R0?AVerror_category@std@@@8
data$r	SEGMENT
??_R0?AVerror_category@std@@@8 DQ FLAT:??_7type_info@@6B@ ; std::error_category `RTTI Type Descriptor'
	DQ	0000000000000000H
	DB	'.?AVerror_category@std@@', 00H
data$r	ENDS
;	COMDAT ??_R1A@?0A@EA@runtime_error@std@@8
rdata$r	SEGMENT
??_R1A@?0A@EA@runtime_error@std@@8 DD imagerel ??_R0?AVruntime_error@std@@@8 ; std::runtime_error::`RTTI Base Class Descriptor at (0,-1,0,64)'
	DD	01H
	DD	00H
	DD	0ffffffffH
	DD	00H
	DD	040H
	DD	imagerel ??_R3runtime_error@std@@8
rdata$r	ENDS
;	COMDAT ??_R2runtime_error@std@@8
rdata$r	SEGMENT
??_R2runtime_error@std@@8 DD imagerel ??_R1A@?0A@EA@runtime_error@std@@8 ; std::runtime_error::`RTTI Base Class Array'
	DD	imagerel ??_R1A@?0A@EA@exception@std@@8
	ORG $+3
rdata$r	ENDS
;	COMDAT ??_R3runtime_error@std@@8
rdata$r	SEGMENT
??_R3runtime_error@std@@8 DD 00H			; std::runtime_error::`RTTI Class Hierarchy Descriptor'
	DD	00H
	DD	02H
	DD	imagerel ??_R2runtime_error@std@@8
rdata$r	ENDS
;	COMDAT ??_R4runtime_error@std@@6B@
rdata$r	SEGMENT
??_R4runtime_error@std@@6B@ DD 01H			; std::runtime_error::`RTTI Complete Object Locator'
	DD	00H
	DD	00H
	DD	imagerel ??_R0?AVruntime_error@std@@@8
	DD	imagerel ??_R3runtime_error@std@@8
	DD	imagerel ??_R4runtime_error@std@@6B@
rdata$r	ENDS
;	COMDAT ??_R1A@?0A@EA@bad_array_new_length@std@@8
rdata$r	SEGMENT
??_R1A@?0A@EA@bad_array_new_length@std@@8 DD imagerel ??_R0?AVbad_array_new_length@std@@@8 ; std::bad_array_new_length::`RTTI Base Class Descriptor at (0,-1,0,64)'
	DD	02H
	DD	00H
	DD	0ffffffffH
	DD	00H
	DD	040H
	DD	imagerel ??_R3bad_array_new_length@std@@8
rdata$r	ENDS
;	COMDAT ??_R2bad_array_new_length@std@@8
rdata$r	SEGMENT
??_R2bad_array_new_length@std@@8 DD imagerel ??_R1A@?0A@EA@bad_array_new_length@std@@8 ; std::bad_array_new_length::`RTTI Base Class Array'
	DD	imagerel ??_R1A@?0A@EA@bad_alloc@std@@8
	DD	imagerel ??_R1A@?0A@EA@exception@std@@8
	ORG $+3
rdata$r	ENDS
;	COMDAT ??_R3bad_array_new_length@std@@8
rdata$r	SEGMENT
??_R3bad_array_new_length@std@@8 DD 00H			; std::bad_array_new_length::`RTTI Class Hierarchy Descriptor'
	DD	00H
	DD	03H
	DD	imagerel ??_R2bad_array_new_length@std@@8
rdata$r	ENDS
;	COMDAT ??_R4bad_array_new_length@std@@6B@
rdata$r	SEGMENT
??_R4bad_array_new_length@std@@6B@ DD 01H		; std::bad_array_new_length::`RTTI Complete Object Locator'
	DD	00H
	DD	00H
	DD	imagerel ??_R0?AVbad_array_new_length@std@@@8
	DD	imagerel ??_R3bad_array_new_length@std@@8
	DD	imagerel ??_R4bad_array_new_length@std@@6B@
rdata$r	ENDS
;	COMDAT ??_R1A@?0A@EA@bad_alloc@std@@8
rdata$r	SEGMENT
??_R1A@?0A@EA@bad_alloc@std@@8 DD imagerel ??_R0?AVbad_alloc@std@@@8 ; std::bad_alloc::`RTTI Base Class Descriptor at (0,-1,0,64)'
	DD	01H
	DD	00H
	DD	0ffffffffH
	DD	00H
	DD	040H
	DD	imagerel ??_R3bad_alloc@std@@8
rdata$r	ENDS
;	COMDAT ??_R2bad_alloc@std@@8
rdata$r	SEGMENT
??_R2bad_alloc@std@@8 DD imagerel ??_R1A@?0A@EA@bad_alloc@std@@8 ; std::bad_alloc::`RTTI Base Class Array'
	DD	imagerel ??_R1A@?0A@EA@exception@std@@8
	ORG $+3
rdata$r	ENDS
;	COMDAT ??_R3bad_alloc@std@@8
rdata$r	SEGMENT
??_R3bad_alloc@std@@8 DD 00H				; std::bad_alloc::`RTTI Class Hierarchy Descriptor'
	DD	00H
	DD	02H
	DD	imagerel ??_R2bad_alloc@std@@8
rdata$r	ENDS
;	COMDAT ??_R4bad_alloc@std@@6B@
rdata$r	SEGMENT
??_R4bad_alloc@std@@6B@ DD 01H				; std::bad_alloc::`RTTI Complete Object Locator'
	DD	00H
	DD	00H
	DD	imagerel ??_R0?AVbad_alloc@std@@@8
	DD	imagerel ??_R3bad_alloc@std@@8
	DD	imagerel ??_R4bad_alloc@std@@6B@
rdata$r	ENDS
;	COMDAT ??_R1A@?0A@EA@exception@std@@8
rdata$r	SEGMENT
??_R1A@?0A@EA@exception@std@@8 DD imagerel ??_R0?AVexception@std@@@8 ; std::exception::`RTTI Base Class Descriptor at (0,-1,0,64)'
	DD	00H
	DD	00H
	DD	0ffffffffH
	DD	00H
	DD	040H
	DD	imagerel ??_R3exception@std@@8
rdata$r	ENDS
;	COMDAT ??_R2exception@std@@8
rdata$r	SEGMENT
??_R2exception@std@@8 DD imagerel ??_R1A@?0A@EA@exception@std@@8 ; std::exception::`RTTI Base Class Array'
	ORG $+3
rdata$r	ENDS
;	COMDAT ??_R3exception@std@@8
rdata$r	SEGMENT
??_R3exception@std@@8 DD 00H				; std::exception::`RTTI Class Hierarchy Descriptor'
	DD	00H
	DD	01H
	DD	imagerel ??_R2exception@std@@8
rdata$r	ENDS
;	COMDAT ??_R4exception@std@@6B@
rdata$r	SEGMENT
??_R4exception@std@@6B@ DD 01H				; std::exception::`RTTI Complete Object Locator'
	DD	00H
	DD	00H
	DD	imagerel ??_R0?AVexception@std@@@8
	DD	imagerel ??_R3exception@std@@8
	DD	imagerel ??_R4exception@std@@6B@
rdata$r	ENDS
;	COMDAT ??_C@_1CK@NDNHPKPI@?$AA?$CC?$AAi?$AAn?$AAv?$AAa?$AAl?$AAi?$AAd?$AA?5?$AAc?$AAo?$AAm?$AAp?$AAa?$AAr@
CONST	SEGMENT
??_C@_1CK@NDNHPKPI@?$AA?$CC?$AAi?$AAn?$AAv?$AAa?$AAl?$AAi?$AAd?$AA?5?$AAc?$AAo?$AAm?$AAp?$AAa?$AAr@ DB '"'
	DB	00H, 'i', 00H, 'n', 00H, 'v', 00H, 'a', 00H, 'l', 00H, 'i', 00H
	DB	'd', 00H, ' ', 00H, 'c', 00H, 'o', 00H, 'm', 00H, 'p', 00H, 'a'
	DB	00H, 'r', 00H, 'a', 00H, 't', 00H, 'o', 00H, 'r', 00H, '"', 00H
	DB	00H, 00H					; `string'
CONST	ENDS
;	COMDAT ??_C@_1CI@JONCLBEJ@?$AAs?$AAt?$AAd?$AA?3?$AA?3?$AA_?$AAD?$AAe?$AAb?$AAu?$AAg?$AA_?$AAl?$AAt?$AA_@
CONST	SEGMENT
??_C@_1CI@JONCLBEJ@?$AAs?$AAt?$AAd?$AA?3?$AA?3?$AA_?$AAD?$AAe?$AAb?$AAu?$AAg?$AA_?$AAl?$AAt?$AA_@ DB 's'
	DB	00H, 't', 00H, 'd', 00H, ':', 00H, ':', 00H, '_', 00H, 'D', 00H
	DB	'e', 00H, 'b', 00H, 'u', 00H, 'g', 00H, '_', 00H, 'l', 00H, 't'
	DB	00H, '_', 00H, 'p', 00H, 'r', 00H, 'e', 00H, 'd', 00H, 00H, 00H ; `string'
CONST	ENDS
;	COMDAT ??_C@_0BD@FEEMDEPI@invalid?5comparator@
CONST	SEGMENT
??_C@_0BD@FEEMDEPI@invalid?5comparator@ DB 'invalid comparator', 00H ; `string'
CONST	ENDS
;	COMDAT ??_C@_1EO@GFNCMDLA@?$AAs?$AAt?$AAd?$AA?3?$AA?3?$AA_?$AAA?$AAl?$AAl?$AAo?$AAc?$AAa?$AAt?$AAe?$AA_@
CONST	SEGMENT
??_C@_1EO@GFNCMDLA@?$AAs?$AAt?$AAd?$AA?3?$AA?3?$AA_?$AAA?$AAl?$AAl?$AAo?$AAc?$AAa?$AAt?$AAe?$AA_@ DB 's'
	DB	00H, 't', 00H, 'd', 00H, ':', 00H, ':', 00H, '_', 00H, 'A', 00H
	DB	'l', 00H, 'l', 00H, 'o', 00H, 'c', 00H, 'a', 00H, 't', 00H, 'e'
	DB	00H, '_', 00H, 'm', 00H, 'a', 00H, 'n', 00H, 'u', 00H, 'a', 00H
	DB	'l', 00H, 'l', 00H, 'y', 00H, '_', 00H, 'v', 00H, 'e', 00H, 'c'
	DB	00H, 't', 00H, 'o', 00H, 'r', 00H, '_', 00H, 'a', 00H, 'l', 00H
	DB	'i', 00H, 'g', 00H, 'n', 00H, 'e', 00H, 'd', 00H, 00H, 00H ; `string'
CONST	ENDS
;	COMDAT ??_C@_1DG@FJIKMGFD@?$AA?$CC?$AAt?$AAr?$AAa?$AAn?$AAs?$AAp?$AAo?$AAs?$AAe?$AAd?$AA?5?$AAp?$AAo?$AAi@
CONST	SEGMENT
??_C@_1DG@FJIKMGFD@?$AA?$CC?$AAt?$AAr?$AAa?$AAn?$AAs?$AAp?$AAo?$AAs?$AAe?$AAd?$AA?5?$AAp?$AAo?$AAi@ DB '"'
	DB	00H, 't', 00H, 'r', 00H, 'a', 00H, 'n', 00H, 's', 00H, 'p', 00H
	DB	'o', 00H, 's', 00H, 'e', 00H, 'd', 00H, ' ', 00H, 'p', 00H, 'o'
	DB	00H, 'i', 00H, 'n', 00H, 't', 00H, 'e', 00H, 'r', 00H, ' ', 00H
	DB	'r', 00H, 'a', 00H, 'n', 00H, 'g', 00H, 'e', 00H, '"', 00H, 00H
	DB	00H						; `string'
CONST	ENDS
;	COMDAT ??_C@_1CG@LJCPDKEJ@?$AAs?$AAt?$AAd?$AA?3?$AA?3?$AA_?$AAV?$AAe?$AAr?$AAi?$AAf?$AAy?$AA_?$AAr?$AAa@
CONST	SEGMENT
??_C@_1CG@LJCPDKEJ@?$AAs?$AAt?$AAd?$AA?3?$AA?3?$AA_?$AAV?$AAe?$AAr?$AAi?$AAf?$AAy?$AA_?$AAr?$AAa@ DB 's'
	DB	00H, 't', 00H, 'd', 00H, ':', 00H, ':', 00H, '_', 00H, 'V', 00H
	DB	'e', 00H, 'r', 00H, 'i', 00H, 'f', 00H, 'y', 00H, '_', 00H, 'r'
	DB	00H, 'a', 00H, 'n', 00H, 'g', 00H, 'e', 00H, 00H, 00H ; `string'
CONST	ENDS
;	COMDAT ??_C@_1MO@JGNIPGGO@?$AAF?$AA?3?$AA?2?$AAP?$AAr?$AAo?$AAg?$AAr?$AAa?$AAm?$AA?5?$AAF?$AAi?$AAl?$AAe@
CONST	SEGMENT
??_C@_1MO@JGNIPGGO@?$AAF?$AA?3?$AA?2?$AAP?$AAr?$AAo?$AAg?$AAr?$AAa?$AAm?$AA?5?$AAF?$AAi?$AAl?$AAe@ DB 'F'
	DB	00H, ':', 00H, '\', 00H, 'P', 00H, 'r', 00H, 'o', 00H, 'g', 00H
	DB	'r', 00H, 'a', 00H, 'm', 00H, ' ', 00H, 'F', 00H, 'i', 00H, 'l'
	DB	00H, 'e', 00H, 's', 00H, ' ', 00H, '(', 00H, 'x', 00H, '8', 00H
	DB	'6', 00H, ')', 00H, '\', 00H, 'M', 00H, 'i', 00H, 'c', 00H, 'r'
	DB	00H, 'o', 00H, 's', 00H, 'o', 00H, 'f', 00H, 't', 00H, ' ', 00H
	DB	'V', 00H, 'i', 00H, 's', 00H, 'u', 00H, 'a', 00H, 'l', 00H, ' '
	DB	00H, 'S', 00H, 't', 00H, 'u', 00H, 'd', 00H, 'i', 00H, 'o', 00H
	DB	'\', 00H, '2', 00H, '0', 00H, '1', 00H, '9', 00H, '\', 00H, 'P'
	DB	00H, 'r', 00H, 'e', 00H, 'v', 00H, 'i', 00H, 'e', 00H, 'w', 00H
	DB	'\', 00H, 'V', 00H, 'C', 00H, '\', 00H, 'T', 00H, 'o', 00H, 'o'
	DB	00H, 'l', 00H, 's', 00H, '\', 00H, 'M', 00H, 'S', 00H, 'V', 00H
	DB	'C', 00H, '\', 00H, '1', 00H, '4', 00H, '.', 00H, '2', 00H, '7'
	DB	00H, '.', 00H, '2', 00H, '8', 00H, '8', 00H, '2', 00H, '6', 00H
	DB	'\', 00H, 'i', 00H, 'n', 00H, 'c', 00H, 'l', 00H, 'u', 00H, 'd'
	DB	00H, 'e', 00H, '\', 00H, 'x', 00H, 'u', 00H, 't', 00H, 'i', 00H
	DB	'l', 00H, 'i', 00H, 't', 00H, 'y', 00H, 00H, 00H ; `string'
CONST	ENDS
;	COMDAT ??_C@_0GH@FNAMMGGP@F?3?2Program?5Files?5?$CIx86?$CJ?2Microsof@
CONST	SEGMENT
??_C@_0GH@FNAMMGGP@F?3?2Program?5Files?5?$CIx86?$CJ?2Microsof@ DB 'F:\Pro'
	DB	'gram Files (x86)\Microsoft Visual Studio\2019\Preview\VC\Tool'
	DB	's\MSVC\14.27.28826\include\xutility', 00H	; `string'
CONST	ENDS
;	COMDAT ??_C@_0BJ@HAJGEHKO@transposed?5pointer?5range@
CONST	SEGMENT
??_C@_0BJ@HAJGEHKO@transposed?5pointer?5range@ DB 'transposed pointer ran'
	DB	'ge', 00H					; `string'
CONST	ENDS
;	COMDAT ??_C@_1GA@MFCCELOD@?$AAs?$AAt?$AAd?$AA?3?$AA?3?$AA_?$AAA?$AAt?$AAo?$AAm?$AAi?$AAc?$AA_?$AAs?$AAt@
CONST	SEGMENT
??_C@_1GA@MFCCELOD@?$AAs?$AAt?$AAd?$AA?3?$AA?3?$AA_?$AAA?$AAt?$AAo?$AAm?$AAi?$AAc?$AA_?$AAs?$AAt@ DB 's'
	DB	00H, 't', 00H, 'd', 00H, ':', 00H, ':', 00H, '_', 00H, 'A', 00H
	DB	't', 00H, 'o', 00H, 'm', 00H, 'i', 00H, 'c', 00H, '_', 00H, 's'
	DB	00H, 't', 00H, 'o', 00H, 'r', 00H, 'a', 00H, 'g', 00H, 'e', 00H
	DB	'<', 00H, 'u', 00H, 'n', 00H, 's', 00H, 'i', 00H, 'g', 00H, 'n'
	DB	00H, 'e', 00H, 'd', 00H, ' ', 00H, '_', 00H, '_', 00H, 'i', 00H
	DB	'n', 00H, 't', 00H, '6', 00H, '4', 00H, ',', 00H, '8', 00H, '>'
	DB	00H, ':', 00H, ':', 00H, 's', 00H, 't', 00H, 'o', 00H, 'r', 00H
	DB	'e', 00H, 00H, 00H				; `string'
CONST	ENDS
;	COMDAT ??_7?$Ref@UStudent@@@@6B@
CONST	SEGMENT
??_7?$Ref@UStudent@@@@6B@ DQ FLAT:??_R4?$Ref@UStudent@@@@6B@ ; Ref<Student>::`vftable'
	DQ	FLAT:??_E?$Ref@UStudent@@@@UEAAPEAXI@Z
	DQ	FLAT:?Finalize@?$Ref@UStudent@@@@UEAAXXZ
CONST	ENDS
;	COMDAT ??_C@_0BC@HOFJGBDP@Student?5Destroyed@
CONST	SEGMENT
??_C@_0BC@HOFJGBDP@Student?5Destroyed@ DB 'Student Destroyed', 00H ; `string'
CONST	ENDS
;	COMDAT ??_7IRef@@6B@
CONST	SEGMENT
??_7IRef@@6B@ DQ FLAT:??_R4IRef@@6B@			; IRef::`vftable'
	DQ	FLAT:??_EIRef@@UEAAPEAXI@Z
	DQ	FLAT:_purecall
CONST	ENDS
;	COMDAT ??_C@_0BB@GCADKGJO@map?1set?5too?5long@
CONST	SEGMENT
??_C@_0BB@GCADKGJO@map?1set?5too?5long@ DB 'map/set too long', 00H ; `string'
CONST	ENDS
;	COMDAT _CT??_R0?AVfailure@ios_base@std@@@8??0failure@ios_base@std@@QEAA@AEBV012@@Z40
xdata$x	SEGMENT
_CT??_R0?AVfailure@ios_base@std@@@8??0failure@ios_base@std@@QEAA@AEBV012@@Z40 DD 00H
	DD	imagerel ??_R0?AVfailure@ios_base@std@@@8
	DD	00H
	DD	0ffffffffH
	ORG $+4
	DD	028H
	DD	imagerel ??0failure@ios_base@std@@QEAA@AEBV012@@Z
xdata$x	ENDS
;	COMDAT ??_R0?AVfailure@ios_base@std@@@8
data$r	SEGMENT
??_R0?AVfailure@ios_base@std@@@8 DQ FLAT:??_7type_info@@6B@ ; std::ios_base::failure `RTTI Type Descriptor'
	DQ	0000000000000000H
	DB	'.?AVfailure@ios_base@std@@', 00H
data$r	ENDS
;	COMDAT _CTA5?AVfailure@ios_base@std@@
xdata$x	SEGMENT
_CTA5?AVfailure@ios_base@std@@ DD 05H
	DD	imagerel _CT??_R0?AVfailure@ios_base@std@@@8??0failure@ios_base@std@@QEAA@AEBV012@@Z40
	DD	imagerel _CT??_R0?AVsystem_error@std@@@8??0system_error@std@@QEAA@AEBV01@@Z40
	DD	imagerel _CT??_R0?AV_System_error@std@@@8??0_System_error@std@@QEAA@AEBV01@@Z40
	DD	imagerel _CT??_R0?AVruntime_error@std@@@8??0runtime_error@std@@QEAA@AEBV01@@Z24
	DD	imagerel _CT??_R0?AVexception@std@@@8??0exception@std@@QEAA@AEBV01@@Z24
xdata$x	ENDS
;	COMDAT _TI5?AVfailure@ios_base@std@@
xdata$x	SEGMENT
_TI5?AVfailure@ios_base@std@@ DD 00H
	DD	imagerel ??1failure@ios_base@std@@UEAA@XZ
	DD	00H
	DD	imagerel _CTA5?AVfailure@ios_base@std@@
xdata$x	ENDS
;	COMDAT ??_C@_0BF@OOHOMBOF@ios_base?3?3eofbit?5set@
CONST	SEGMENT
??_C@_0BF@OOHOMBOF@ios_base?3?3eofbit?5set@ DB 'ios_base::eofbit set', 00H ; `string'
CONST	ENDS
;	COMDAT ??_C@_0BG@FMKFHCIL@ios_base?3?3failbit?5set@
CONST	SEGMENT
??_C@_0BG@FMKFHCIL@ios_base?3?3failbit?5set@ DB 'ios_base::failbit set', 00H ; `string'
CONST	ENDS
;	COMDAT ??_C@_0BF@PHHKMMFD@ios_base?3?3badbit?5set@
CONST	SEGMENT
??_C@_0BF@PHHKMMFD@ios_base?3?3badbit?5set@ DB 'ios_base::badbit set', 00H ; `string'
CONST	ENDS
;	COMDAT ??_7failure@ios_base@std@@6B@
CONST	SEGMENT
??_7failure@ios_base@std@@6B@ DQ FLAT:??_R4failure@ios_base@std@@6B@ ; std::ios_base::failure::`vftable'
	DQ	FLAT:??_Efailure@ios_base@std@@UEAAPEAXI@Z
	DQ	FLAT:?what@exception@std@@UEBAPEBDXZ
CONST	ENDS
;	COMDAT ??_7?$ctype@D@std@@6B@
CONST	SEGMENT
??_7?$ctype@D@std@@6B@ DQ FLAT:??_R4?$ctype@D@std@@6B@	; std::ctype<char>::`vftable'
	DQ	FLAT:??_E?$ctype@D@std@@MEAAPEAXI@Z
	DQ	FLAT:?_Incref@facet@locale@std@@UEAAXXZ
	DQ	FLAT:?_Decref@facet@locale@std@@UEAAPEAV_Facet_base@3@XZ
	DQ	FLAT:?do_tolower@?$ctype@D@std@@MEBAPEBDPEADPEBD@Z
	DQ	FLAT:?do_tolower@?$ctype@D@std@@MEBADD@Z
	DQ	FLAT:?do_toupper@?$ctype@D@std@@MEBAPEBDPEADPEBD@Z
	DQ	FLAT:?do_toupper@?$ctype@D@std@@MEBADD@Z
	DQ	FLAT:?do_widen@?$ctype@D@std@@MEBAPEBDPEBD0PEAD@Z
	DQ	FLAT:?do_widen@?$ctype@D@std@@MEBADD@Z
	DQ	FLAT:?do_narrow@?$ctype@D@std@@MEBAPEBDPEBD0DPEAD@Z
	DQ	FLAT:?do_narrow@?$ctype@D@std@@MEBADDD@Z
CONST	ENDS
;	COMDAT ??_7ctype_base@std@@6B@
CONST	SEGMENT
??_7ctype_base@std@@6B@ DQ FLAT:??_R4ctype_base@std@@6B@ ; std::ctype_base::`vftable'
	DQ	FLAT:??_Ectype_base@std@@UEAAPEAXI@Z
	DQ	FLAT:?_Incref@facet@locale@std@@UEAAXXZ
	DQ	FLAT:?_Decref@facet@locale@std@@UEAAPEAV_Facet_base@3@XZ
CONST	ENDS
;	COMDAT ??_7facet@locale@std@@6B@
CONST	SEGMENT
??_7facet@locale@std@@6B@ DQ FLAT:??_R4facet@locale@std@@6B@ ; std::locale::facet::`vftable'
	DQ	FLAT:??_Efacet@locale@std@@MEAAPEAXI@Z
	DQ	FLAT:?_Incref@facet@locale@std@@UEAAXXZ
	DQ	FLAT:?_Decref@facet@locale@std@@UEAAPEAV_Facet_base@3@XZ
CONST	ENDS
;	COMDAT ??_C@_0GG@DLJLKOKA@F?3?2Program?5Files?5?$CIx86?$CJ?2Microsof@
CONST	SEGMENT
??_C@_0GG@DLJLKOKA@F?3?2Program?5Files?5?$CIx86?$CJ?2Microsof@ DB 'F:\Pro'
	DB	'gram Files (x86)\Microsoft Visual Studio\2019\Preview\VC\Tool'
	DB	's\MSVC\14.27.28826\include\xlocale', 00H	; `string'
CONST	ENDS
;	COMDAT ??_C@_0BA@ELKIONDK@bad?5locale?5name@
CONST	SEGMENT
??_C@_0BA@ELKIONDK@bad?5locale?5name@ DB 'bad locale name', 00H ; `string'
CONST	ENDS
;	COMDAT ??_7_Facet_base@std@@6B@
CONST	SEGMENT
??_7_Facet_base@std@@6B@ DQ FLAT:??_R4_Facet_base@std@@6B@ ; std::_Facet_base::`vftable'
	DQ	FLAT:??_E_Facet_base@std@@UEAAPEAXI@Z
	DQ	FLAT:_purecall
	DQ	FLAT:_purecall
CONST	ENDS
;	COMDAT _CT??_R0?AVbad_cast@std@@@8??0bad_cast@std@@QEAA@AEBV01@@Z24
xdata$x	SEGMENT
_CT??_R0?AVbad_cast@std@@@8??0bad_cast@std@@QEAA@AEBV01@@Z24 DD 00H
	DD	imagerel ??_R0?AVbad_cast@std@@@8
	DD	00H
	DD	0ffffffffH
	ORG $+4
	DD	018H
	DD	imagerel ??0bad_cast@std@@QEAA@AEBV01@@Z
xdata$x	ENDS
;	COMDAT ??_R0?AVbad_cast@std@@@8
data$r	SEGMENT
??_R0?AVbad_cast@std@@@8 DQ FLAT:??_7type_info@@6B@	; std::bad_cast `RTTI Type Descriptor'
	DQ	0000000000000000H
	DB	'.?AVbad_cast@std@@', 00H
data$r	ENDS
;	COMDAT _CTA2?AVbad_cast@std@@
xdata$x	SEGMENT
_CTA2?AVbad_cast@std@@ DD 02H
	DD	imagerel _CT??_R0?AVbad_cast@std@@@8??0bad_cast@std@@QEAA@AEBV01@@Z24
	DD	imagerel _CT??_R0?AVexception@std@@@8??0exception@std@@QEAA@AEBV01@@Z24
xdata$x	ENDS
;	COMDAT _TI2?AVbad_cast@std@@
xdata$x	SEGMENT
_TI2?AVbad_cast@std@@ DD 00H
	DD	imagerel ??1bad_cast@std@@UEAA@XZ
	DD	00H
	DD	imagerel _CTA2?AVbad_cast@std@@
xdata$x	ENDS
;	COMDAT ??_C@_08EPJLHIJG@bad?5cast@
CONST	SEGMENT
??_C@_08EPJLHIJG@bad?5cast@ DB 'bad cast', 00H		; `string'
CONST	ENDS
;	COMDAT ??_7bad_cast@std@@6B@
CONST	SEGMENT
??_7bad_cast@std@@6B@ DQ FLAT:??_R4bad_cast@std@@6B@	; std::bad_cast::`vftable'
	DQ	FLAT:??_Ebad_cast@std@@UEAAPEAXI@Z
	DQ	FLAT:?what@exception@std@@UEBAPEBDXZ
CONST	ENDS
;	COMDAT ?_Iostream_error@?4??message@_Iostream_error_category2@std@@UEBA?AV?$basic_string@DU?$char_traits@D@std@@V?$allocator@D@2@@3@H@Z@4QBDB
CONST	SEGMENT
?_Iostream_error@?4??message@_Iostream_error_category2@std@@UEBA?AV?$basic_string@DU?$char_traits@D@std@@V?$allocator@D@2@@3@H@Z@4QBDB DB 069H ; `std::_Iostream_error_category2::message'::`5'::_Iostream_error
	DB	06fH
	DB	073H
	DB	074H
	DB	072H
	DB	065H
	DB	061H
	DB	06dH
	DB	020H
	DB	073H
	DB	074H
	DB	072H
	DB	065H
	DB	061H
	DB	06dH
	DB	020H
	DB	065H
	DB	072H
	DB	072H
	DB	06fH
	DB	072H
	DB	00H
CONST	ENDS
;	COMDAT ??_C@_08LLGCOLLL@iostream@
CONST	SEGMENT
??_C@_08LLGCOLLL@iostream@ DB 'iostream', 00H		; `string'
CONST	ENDS
;	COMDAT ??_7_Iostream_error_category2@std@@6B@
CONST	SEGMENT
??_7_Iostream_error_category2@std@@6B@ DQ FLAT:??_R4_Iostream_error_category2@std@@6B@ ; std::_Iostream_error_category2::`vftable'
	DQ	FLAT:??_E_Iostream_error_category2@std@@UEAAPEAXI@Z
	DQ	FLAT:?name@_Iostream_error_category2@std@@UEBAPEBDXZ
	DQ	FLAT:?message@_Iostream_error_category2@std@@UEBA?AV?$basic_string@DU?$char_traits@D@std@@V?$allocator@D@2@@2@H@Z
	DQ	FLAT:?default_error_condition@error_category@std@@UEBA?AVerror_condition@2@H@Z
	DQ	FLAT:?equivalent@error_category@std@@UEBA_NAEBVerror_code@2@H@Z
	DQ	FLAT:?equivalent@error_category@std@@UEBA_NHAEBVerror_condition@2@@Z
CONST	ENDS
;	COMDAT _CT??_R0?AV_System_error@std@@@8??0_System_error@std@@QEAA@AEBV01@@Z40
xdata$x	SEGMENT
_CT??_R0?AV_System_error@std@@@8??0_System_error@std@@QEAA@AEBV01@@Z40 DD 00H
	DD	imagerel ??_R0?AV_System_error@std@@@8
	DD	00H
	DD	0ffffffffH
	ORG $+4
	DD	028H
	DD	imagerel ??0_System_error@std@@QEAA@AEBV01@@Z
xdata$x	ENDS
;	COMDAT ??_R0?AV_System_error@std@@@8
data$r	SEGMENT
??_R0?AV_System_error@std@@@8 DQ FLAT:??_7type_info@@6B@ ; std::_System_error `RTTI Type Descriptor'
	DQ	0000000000000000H
	DB	'.?AV_System_error@std@@', 00H
data$r	ENDS
;	COMDAT _CT??_R0?AVsystem_error@std@@@8??0system_error@std@@QEAA@AEBV01@@Z40
xdata$x	SEGMENT
_CT??_R0?AVsystem_error@std@@@8??0system_error@std@@QEAA@AEBV01@@Z40 DD 00H
	DD	imagerel ??_R0?AVsystem_error@std@@@8
	DD	00H
	DD	0ffffffffH
	ORG $+4
	DD	028H
	DD	imagerel ??0system_error@std@@QEAA@AEBV01@@Z
xdata$x	ENDS
;	COMDAT ??_R0?AVsystem_error@std@@@8
data$r	SEGMENT
??_R0?AVsystem_error@std@@@8 DQ FLAT:??_7type_info@@6B@	; std::system_error `RTTI Type Descriptor'
	DQ	0000000000000000H
	DB	'.?AVsystem_error@std@@', 00H
data$r	ENDS
;	COMDAT ??_C@_00CNPNBAHC@@
CONST	SEGMENT
??_C@_00CNPNBAHC@@ DB 00H				; `string'
CONST	ENDS
;	COMDAT ??_7system_error@std@@6B@
CONST	SEGMENT
??_7system_error@std@@6B@ DQ FLAT:??_R4system_error@std@@6B@ ; std::system_error::`vftable'
	DQ	FLAT:??_Esystem_error@std@@UEAAPEAXI@Z
	DQ	FLAT:?what@exception@std@@UEBAPEBDXZ
CONST	ENDS
;	COMDAT ??_C@_02LMMGGCAJ@?3?5@
CONST	SEGMENT
??_C@_02LMMGGCAJ@?3?5@ DB ': ', 00H			; `string'
CONST	ENDS
;	COMDAT ??_7_System_error@std@@6B@
CONST	SEGMENT
??_7_System_error@std@@6B@ DQ FLAT:??_R4_System_error@std@@6B@ ; std::_System_error::`vftable'
	DQ	FLAT:??_E_System_error@std@@UEAAPEAXI@Z
	DQ	FLAT:?what@exception@std@@UEBAPEBDXZ
CONST	ENDS
;	COMDAT ??_C@_1CG@GPPLBDPC@?$AAs?$AAt?$AAd?$AA?3?$AA?3?$AA_?$AAL?$AAo?$AAa?$AAd?$AA_?$AAb?$AAa?$AAr?$AAr@
CONST	SEGMENT
??_C@_1CG@GPPLBDPC@?$AAs?$AAt?$AAd?$AA?3?$AA?3?$AA_?$AAL?$AAo?$AAa?$AAd?$AA_?$AAb?$AAa?$AAr?$AAr@ DB 's'
	DB	00H, 't', 00H, 'd', 00H, ':', 00H, ':', 00H, '_', 00H, 'L', 00H
	DB	'o', 00H, 'a', 00H, 'd', 00H, '_', 00H, 'b', 00H, 'a', 00H, 'r'
	DB	00H, 'r', 00H, 'i', 00H, 'e', 00H, 'r', 00H, 00H, 00H ; `string'
CONST	ENDS
;	COMDAT ?__LINE__Var@?0??_Load_barrier@std@@YAXW4memory_order@2@@Z@4JA
_DATA	SEGMENT
?__LINE__Var@?0??_Load_barrier@std@@YAXW4memory_order@2@@Z@4JA DD 0edH ; `std::_Load_barrier'::`1'::__LINE__Var
_DATA	ENDS
;	COMDAT ??_C@_1CO@JOMFDNFG@?$AA?$CC?$AAI?$AAn?$AAv?$AAa?$AAl?$AAi?$AAd?$AA?5?$AAm?$AAe?$AAm?$AAo?$AAr?$AAy@
CONST	SEGMENT
??_C@_1CO@JOMFDNFG@?$AA?$CC?$AAI?$AAn?$AAv?$AAa?$AAl?$AAi?$AAd?$AA?5?$AAm?$AAe?$AAm?$AAo?$AAr?$AAy@ DB '"'
	DB	00H, 'I', 00H, 'n', 00H, 'v', 00H, 'a', 00H, 'l', 00H, 'i', 00H
	DB	'd', 00H, ' ', 00H, 'm', 00H, 'e', 00H, 'm', 00H, 'o', 00H, 'r'
	DB	00H, 'y', 00H, ' ', 00H, 'o', 00H, 'r', 00H, 'd', 00H, 'e', 00H
	DB	'r', 00H, '"', 00H, 00H, 00H			; `string'
CONST	ENDS
;	COMDAT ??_C@_1MK@BBCNMNEJ@?$AAF?$AA?3?$AA?2?$AAP?$AAr?$AAo?$AAg?$AAr?$AAa?$AAm?$AA?5?$AAF?$AAi?$AAl?$AAe@
CONST	SEGMENT
??_C@_1MK@BBCNMNEJ@?$AAF?$AA?3?$AA?2?$AAP?$AAr?$AAo?$AAg?$AAr?$AAa?$AAm?$AA?5?$AAF?$AAi?$AAl?$AAe@ DB 'F'
	DB	00H, ':', 00H, '\', 00H, 'P', 00H, 'r', 00H, 'o', 00H, 'g', 00H
	DB	'r', 00H, 'a', 00H, 'm', 00H, ' ', 00H, 'F', 00H, 'i', 00H, 'l'
	DB	00H, 'e', 00H, 's', 00H, ' ', 00H, '(', 00H, 'x', 00H, '8', 00H
	DB	'6', 00H, ')', 00H, '\', 00H, 'M', 00H, 'i', 00H, 'c', 00H, 'r'
	DB	00H, 'o', 00H, 's', 00H, 'o', 00H, 'f', 00H, 't', 00H, ' ', 00H
	DB	'V', 00H, 'i', 00H, 's', 00H, 'u', 00H, 'a', 00H, 'l', 00H, ' '
	DB	00H, 'S', 00H, 't', 00H, 'u', 00H, 'd', 00H, 'i', 00H, 'o', 00H
	DB	'\', 00H, '2', 00H, '0', 00H, '1', 00H, '9', 00H, '\', 00H, 'P'
	DB	00H, 'r', 00H, 'e', 00H, 'v', 00H, 'i', 00H, 'e', 00H, 'w', 00H
	DB	'\', 00H, 'V', 00H, 'C', 00H, '\', 00H, 'T', 00H, 'o', 00H, 'o'
	DB	00H, 'l', 00H, 's', 00H, '\', 00H, 'M', 00H, 'S', 00H, 'V', 00H
	DB	'C', 00H, '\', 00H, '1', 00H, '4', 00H, '.', 00H, '2', 00H, '7'
	DB	00H, '.', 00H, '2', 00H, '8', 00H, '8', 00H, '2', 00H, '6', 00H
	DB	'\', 00H, 'i', 00H, 'n', 00H, 'c', 00H, 'l', 00H, 'u', 00H, 'd'
	DB	00H, 'e', 00H, '\', 00H, 'a', 00H, 't', 00H, 'o', 00H, 'm', 00H
	DB	'i', 00H, 'c', 00H, 00H, 00H			; `string'
CONST	ENDS
;	COMDAT ??_C@_0GF@LMMBJOFI@F?3?2Program?5Files?5?$CIx86?$CJ?2Microsof@
CONST	SEGMENT
??_C@_0GF@LMMBJOFI@F?3?2Program?5Files?5?$CIx86?$CJ?2Microsof@ DB 'F:\Pro'
	DB	'gram Files (x86)\Microsoft Visual Studio\2019\Preview\VC\Tool'
	DB	's\MSVC\14.27.28826\include\atomic', 00H	; `string'
CONST	ENDS
;	COMDAT ??_C@_0BF@FBDAHHJI@Invalid?5memory?5order@
CONST	SEGMENT
??_C@_0BF@FBDAHHJI@Invalid?5memory?5order@ DB 'Invalid memory order', 00H ; `string'
CONST	ENDS
;	COMDAT _CT??_R0?AVruntime_error@std@@@8??0runtime_error@std@@QEAA@AEBV01@@Z24
xdata$x	SEGMENT
_CT??_R0?AVruntime_error@std@@@8??0runtime_error@std@@QEAA@AEBV01@@Z24 DD 00H
	DD	imagerel ??_R0?AVruntime_error@std@@@8
	DD	00H
	DD	0ffffffffH
	ORG $+4
	DD	018H
	DD	imagerel ??0runtime_error@std@@QEAA@AEBV01@@Z
xdata$x	ENDS
;	COMDAT ??_R0?AVruntime_error@std@@@8
data$r	SEGMENT
??_R0?AVruntime_error@std@@@8 DQ FLAT:??_7type_info@@6B@ ; std::runtime_error `RTTI Type Descriptor'
	DQ	0000000000000000H
	DB	'.?AVruntime_error@std@@', 00H
data$r	ENDS
;	COMDAT ??_7runtime_error@std@@6B@
CONST	SEGMENT
??_7runtime_error@std@@6B@ DQ FLAT:??_R4runtime_error@std@@6B@ ; std::runtime_error::`vftable'
	DQ	FLAT:??_Eruntime_error@std@@UEAAPEAXI@Z
	DQ	FLAT:?what@exception@std@@UEBAPEBDXZ
CONST	ENDS
;	COMDAT ??_C@_0BA@JFNIOLAK@string?5too?5long@
CONST	SEGMENT
??_C@_0BA@JFNIOLAK@string?5too?5long@ DB 'string too long', 00H ; `string'
CONST	ENDS
;	COMDAT ??_C@_1CG@JNLFBNGN@?$AA?$CC?$AAi?$AAn?$AAv?$AAa?$AAl?$AAi?$AAd?$AA?5?$AAa?$AAr?$AAg?$AAu?$AAm?$AAe@
CONST	SEGMENT
??_C@_1CG@JNLFBNGN@?$AA?$CC?$AAi?$AAn?$AAv?$AAa?$AAl?$AAi?$AAd?$AA?5?$AAa?$AAr?$AAg?$AAu?$AAm?$AAe@ DB '"'
	DB	00H, 'i', 00H, 'n', 00H, 'v', 00H, 'a', 00H, 'l', 00H, 'i', 00H
	DB	'd', 00H, ' ', 00H, 'a', 00H, 'r', 00H, 'g', 00H, 'u', 00H, 'm'
	DB	00H, 'e', 00H, 'n', 00H, 't', 00H, '"', 00H, 00H, 00H ; `string'
CONST	ENDS
;	COMDAT ??_C@_1EK@NIFDJFDG@?$AAs?$AAt?$AAd?$AA?3?$AA?3?$AA_?$AAA?$AAd?$AAj?$AAu?$AAs?$AAt?$AA_?$AAm?$AAa@
CONST	SEGMENT
??_C@_1EK@NIFDJFDG@?$AAs?$AAt?$AAd?$AA?3?$AA?3?$AA_?$AAA?$AAd?$AAj?$AAu?$AAs?$AAt?$AA_?$AAm?$AAa@ DB 's'
	DB	00H, 't', 00H, 'd', 00H, ':', 00H, ':', 00H, '_', 00H, 'A', 00H
	DB	'd', 00H, 'j', 00H, 'u', 00H, 's', 00H, 't', 00H, '_', 00H, 'm'
	DB	00H, 'a', 00H, 'n', 00H, 'u', 00H, 'a', 00H, 'l', 00H, 'l', 00H
	DB	'y', 00H, '_', 00H, 'v', 00H, 'e', 00H, 'c', 00H, 't', 00H, 'o'
	DB	00H, 'r', 00H, '_', 00H, 'a', 00H, 'l', 00H, 'i', 00H, 'g', 00H
	DB	'n', 00H, 'e', 00H, 'd', 00H, 00H, 00H	; `string'
CONST	ENDS
;	COMDAT ??_C@_1MM@MFDDHHMO@?$AAF?$AA?3?$AA?2?$AAP?$AAr?$AAo?$AAg?$AAr?$AAa?$AAm?$AA?5?$AAF?$AAi?$AAl?$AAe@
CONST	SEGMENT
??_C@_1MM@MFDDHHMO@?$AAF?$AA?3?$AA?2?$AAP?$AAr?$AAo?$AAg?$AAr?$AAa?$AAm?$AA?5?$AAF?$AAi?$AAl?$AAe@ DB 'F'
	DB	00H, ':', 00H, '\', 00H, 'P', 00H, 'r', 00H, 'o', 00H, 'g', 00H
	DB	'r', 00H, 'a', 00H, 'm', 00H, ' ', 00H, 'F', 00H, 'i', 00H, 'l'
	DB	00H, 'e', 00H, 's', 00H, ' ', 00H, '(', 00H, 'x', 00H, '8', 00H
	DB	'6', 00H, ')', 00H, '\', 00H, 'M', 00H, 'i', 00H, 'c', 00H, 'r'
	DB	00H, 'o', 00H, 's', 00H, 'o', 00H, 'f', 00H, 't', 00H, ' ', 00H
	DB	'V', 00H, 'i', 00H, 's', 00H, 'u', 00H, 'a', 00H, 'l', 00H, ' '
	DB	00H, 'S', 00H, 't', 00H, 'u', 00H, 'd', 00H, 'i', 00H, 'o', 00H
	DB	'\', 00H, '2', 00H, '0', 00H, '1', 00H, '9', 00H, '\', 00H, 'P'
	DB	00H, 'r', 00H, 'e', 00H, 'v', 00H, 'i', 00H, 'e', 00H, 'w', 00H
	DB	'\', 00H, 'V', 00H, 'C', 00H, '\', 00H, 'T', 00H, 'o', 00H, 'o'
	DB	00H, 'l', 00H, 's', 00H, '\', 00H, 'M', 00H, 'S', 00H, 'V', 00H
	DB	'C', 00H, '\', 00H, '1', 00H, '4', 00H, '.', 00H, '2', 00H, '7'
	DB	00H, '.', 00H, '2', 00H, '8', 00H, '8', 00H, '2', 00H, '6', 00H
	DB	'\', 00H, 'i', 00H, 'n', 00H, 'c', 00H, 'l', 00H, 'u', 00H, 'd'
	DB	00H, 'e', 00H, '\', 00H, 'x', 00H, 'm', 00H, 'e', 00H, 'm', 00H
	DB	'o', 00H, 'r', 00H, 'y', 00H, 00H, 00H	; `string'
CONST	ENDS
;	COMDAT ??_C@_0GG@JDFHJMAH@F?3?2Program?5Files?5?$CIx86?$CJ?2Microsof@
CONST	SEGMENT
??_C@_0GG@JDFHJMAH@F?3?2Program?5Files?5?$CIx86?$CJ?2Microsof@ DB 'F:\Pro'
	DB	'gram Files (x86)\Microsoft Visual Studio\2019\Preview\VC\Tool'
	DB	's\MSVC\14.27.28826\include\xmemory', 00H	; `string'
CONST	ENDS
;	COMDAT ??_C@_02DKCKIIND@?$CFs@
CONST	SEGMENT
??_C@_02DKCKIIND@?$CFs@ DB '%s', 00H			; `string'
CONST	ENDS
;	COMDAT ??_C@_0BB@FCMFBGOM@invalid?5argument@
CONST	SEGMENT
??_C@_0BB@FCMFBGOM@invalid?5argument@ DB 'invalid argument', 00H ; `string'
CONST	ENDS
;	COMDAT ?__LINE__Var@?0??_Adjust_manually_vector_aligned@std@@YAXAEAPEAXAEA_K@Z@4JA
_DATA	SEGMENT
?__LINE__Var@?0??_Adjust_manually_vector_aligned@std@@YAXAEAPEAXAEA_K@Z@4JA DD 084H ; `std::_Adjust_manually_vector_aligned'::`1'::__LINE__Var
_DATA	ENDS
;	COMDAT _CT??_R0?AVexception@std@@@8??0exception@std@@QEAA@AEBV01@@Z24
xdata$x	SEGMENT
_CT??_R0?AVexception@std@@@8??0exception@std@@QEAA@AEBV01@@Z24 DD 00H
	DD	imagerel ??_R0?AVexception@std@@@8
	DD	00H
	DD	0ffffffffH
	ORG $+4
	DD	018H
	DD	imagerel ??0exception@std@@QEAA@AEBV01@@Z
xdata$x	ENDS
;	COMDAT ??_R0?AVexception@std@@@8
data$r	SEGMENT
??_R0?AVexception@std@@@8 DQ FLAT:??_7type_info@@6B@	; std::exception `RTTI Type Descriptor'
	DQ	0000000000000000H
	DB	'.?AVexception@std@@', 00H
data$r	ENDS
;	COMDAT _CT??_R0?AVbad_alloc@std@@@8??0bad_alloc@std@@QEAA@AEBV01@@Z24
xdata$x	SEGMENT
_CT??_R0?AVbad_alloc@std@@@8??0bad_alloc@std@@QEAA@AEBV01@@Z24 DD 010H
	DD	imagerel ??_R0?AVbad_alloc@std@@@8
	DD	00H
	DD	0ffffffffH
	ORG $+4
	DD	018H
	DD	imagerel ??0bad_alloc@std@@QEAA@AEBV01@@Z
xdata$x	ENDS
;	COMDAT ??_R0?AVbad_alloc@std@@@8
data$r	SEGMENT
??_R0?AVbad_alloc@std@@@8 DQ FLAT:??_7type_info@@6B@	; std::bad_alloc `RTTI Type Descriptor'
	DQ	0000000000000000H
	DB	'.?AVbad_alloc@std@@', 00H
data$r	ENDS
;	COMDAT _CT??_R0?AVbad_array_new_length@std@@@8??0bad_array_new_length@std@@QEAA@AEBV01@@Z24
xdata$x	SEGMENT
_CT??_R0?AVbad_array_new_length@std@@@8??0bad_array_new_length@std@@QEAA@AEBV01@@Z24 DD 00H
	DD	imagerel ??_R0?AVbad_array_new_length@std@@@8
	DD	00H
	DD	0ffffffffH
	ORG $+4
	DD	018H
	DD	imagerel ??0bad_array_new_length@std@@QEAA@AEBV01@@Z
xdata$x	ENDS
;	COMDAT ??_R0?AVbad_array_new_length@std@@@8
data$r	SEGMENT
??_R0?AVbad_array_new_length@std@@@8 DQ FLAT:??_7type_info@@6B@ ; std::bad_array_new_length `RTTI Type Descriptor'
	DQ	0000000000000000H
	DB	'.?AVbad_array_new_length@std@@', 00H
data$r	ENDS
;	COMDAT _CTA3?AVbad_array_new_length@std@@
xdata$x	SEGMENT
_CTA3?AVbad_array_new_length@std@@ DD 03H
	DD	imagerel _CT??_R0?AVbad_array_new_length@std@@@8??0bad_array_new_length@std@@QEAA@AEBV01@@Z24
	DD	imagerel _CT??_R0?AVbad_alloc@std@@@8??0bad_alloc@std@@QEAA@AEBV01@@Z24
	DD	imagerel _CT??_R0?AVexception@std@@@8??0exception@std@@QEAA@AEBV01@@Z24
xdata$x	ENDS
;	COMDAT _TI3?AVbad_array_new_length@std@@
xdata$x	SEGMENT
_TI3?AVbad_array_new_length@std@@ DD 00H
	DD	imagerel ??1bad_array_new_length@std@@UEAA@XZ
	DD	00H
	DD	imagerel _CTA3?AVbad_array_new_length@std@@
xdata$x	ENDS
;	COMDAT ??_C@_0BF@KINCDENJ@bad?5array?5new?5length@
CONST	SEGMENT
??_C@_0BF@KINCDENJ@bad?5array?5new?5length@ DB 'bad array new length', 00H ; `string'
CONST	ENDS
;	COMDAT ??_7bad_array_new_length@std@@6B@
CONST	SEGMENT
??_7bad_array_new_length@std@@6B@ DQ FLAT:??_R4bad_array_new_length@std@@6B@ ; std::bad_array_new_length::`vftable'
	DQ	FLAT:??_Ebad_array_new_length@std@@UEAAPEAXI@Z
	DQ	FLAT:?what@exception@std@@UEBAPEBDXZ
CONST	ENDS
;	COMDAT ??_7bad_alloc@std@@6B@
CONST	SEGMENT
??_7bad_alloc@std@@6B@ DQ FLAT:??_R4bad_alloc@std@@6B@	; std::bad_alloc::`vftable'
	DQ	FLAT:??_Ebad_alloc@std@@UEAAPEAXI@Z
	DQ	FLAT:?what@exception@std@@UEBAPEBDXZ
CONST	ENDS
;	COMDAT ??_C@_0BC@EOODALEL@Unknown?5exception@
CONST	SEGMENT
??_C@_0BC@EOODALEL@Unknown?5exception@ DB 'Unknown exception', 00H ; `string'
CONST	ENDS
;	COMDAT ??_7exception@std@@6B@
CONST	SEGMENT
??_7exception@std@@6B@ DQ FLAT:??_R4exception@std@@6B@	; std::exception::`vftable'
	DQ	FLAT:??_Eexception@std@@UEAAPEAXI@Z
	DQ	FLAT:?what@exception@std@@UEBAPEBDXZ
CONST	ENDS
;	COMDAT ?piecewise_construct@std@@3Upiecewise_construct_t@1@B
CONST	SEGMENT
?piecewise_construct@std@@3Upiecewise_construct_t@1@B	ORG $+1 ; std::piecewise_construct
CONST	ENDS
;	COMDAT xdata
xdata	SEGMENT
$ip2state$??$get@$0A@AEB_K@std@@YAAEB_K$$QEAV?$tuple@AEB_K@0@@Z DB 02H
	DB	00H
	DB	00H
xdata	ENDS
;	COMDAT xdata
xdata	SEGMENT
$cppxdata$??$get@$0A@AEB_K@std@@YAAEB_K$$QEAV?$tuple@AEB_K@0@@Z DB 060H
	DD	imagerel $ip2state$??$get@$0A@AEB_K@std@@YAAEB_K$$QEAV?$tuple@AEB_K@0@@Z
xdata	ENDS
;	COMDAT xdata
xdata	SEGMENT
$unwind$??$get@$0A@AEB_K@std@@YAAEB_K$$QEAV?$tuple@AEB_K@0@@Z DD 025052a19H
	DD	010e2313H
	DD	07007001dH
	DD	05006H
	DD	imagerel __CxxFrameHandler4
	DD	imagerel $cppxdata$??$get@$0A@AEB_K@std@@YAAEB_K$$QEAV?$tuple@AEB_K@0@@Z
xdata	ENDS
;	COMDAT xdata
xdata	SEGMENT
$ip2state$??$move@AEAV?$tuple@AEB_K@std@@@std@@YA$$QEAV?$tuple@AEB_K@0@AEAV10@@Z DB 02H
	DB	00H
	DB	00H
xdata	ENDS
;	COMDAT xdata
xdata	SEGMENT
$cppxdata$??$move@AEAV?$tuple@AEB_K@std@@@std@@YA$$QEAV?$tuple@AEB_K@0@AEAV10@@Z DB 060H
	DD	imagerel $ip2state$??$move@AEAV?$tuple@AEB_K@std@@@std@@YA$$QEAV?$tuple@AEB_K@0@AEAV10@@Z
xdata	ENDS
;	COMDAT xdata
xdata	SEGMENT
$unwind$??$move@AEAV?$tuple@AEB_K@std@@@std@@YA$$QEAV?$tuple@AEB_K@0@AEAV10@@Z DD 025052a19H
	DD	010e2313H
	DD	07007001dH
	DD	05006H
	DD	imagerel __CxxFrameHandler4
	DD	imagerel $cppxdata$??$move@AEAV?$tuple@AEB_K@std@@@std@@YA$$QEAV?$tuple@AEB_K@0@AEAV10@@Z
xdata	ENDS
;	COMDAT xdata
xdata	SEGMENT
$unwind$??$?0V?$tuple@AEB_K@std@@V?$tuple@$$V@1@$0A@$$Z$S@?$pair@$$CB_KUInternalRef@@@std@@QEAA@AEAV?$tuple@AEB_K@1@AEAV?$tuple@$$V@1@U?$integer_sequence@_K$0A@@1@U?$integer_sequence@_K$S@1@@Z DD 025053901H
	DD	011d2322H
	DD	07016001dH
	DD	05015H
xdata	ENDS
;	COMDAT xdata
xdata	SEGMENT
$unwind$??$?0AEB_K@?$_Tuple_val@AEB_K@std@@QEAA@AEB_K@Z DD 025052f01H
	DD	01132318H
	DD	0700c001dH
	DD	0500bH
xdata	ENDS
;	COMDAT xdata
xdata	SEGMENT
$ip2state$??$?0U_Exact_args_t@std@@$0A@@?$tuple@$$V@std@@QEAA@U_Exact_args_t@1@@Z DB 02H
	DB	00H
	DB	00H
xdata	ENDS
;	COMDAT xdata
xdata	SEGMENT
$cppxdata$??$?0U_Exact_args_t@std@@$0A@@?$tuple@$$V@std@@QEAA@U_Exact_args_t@1@@Z DB 060H
	DD	imagerel $ip2state$??$?0U_Exact_args_t@std@@$0A@@?$tuple@$$V@std@@QEAA@U_Exact_args_t@1@@Z
xdata	ENDS
;	COMDAT xdata
xdata	SEGMENT
$unwind$??$?0U_Exact_args_t@std@@$0A@@?$tuple@$$V@std@@QEAA@U_Exact_args_t@1@@Z DD 025052e19H
	DD	01122317H
	DD	0700b001dH
	DD	0500aH
	DD	imagerel __CxxFrameHandler4
	DD	imagerel $cppxdata$??$?0U_Exact_args_t@std@@$0A@@?$tuple@$$V@std@@QEAA@U_Exact_args_t@1@@Z
xdata	ENDS
;	COMDAT xdata
xdata	SEGMENT
$ip2state$??$forward@AEAPEAU?$_Tree_node@U?$pair@$$CB_KUInternalRef@@@std@@PEAX@std@@@std@@YAAEAPEAU?$_Tree_node@U?$pair@$$CB_KUInternalRef@@@std@@PEAX@0@AEAPEAU10@@Z DB 02H
	DB	00H
	DB	00H
xdata	ENDS
;	COMDAT xdata
xdata	SEGMENT
$cppxdata$??$forward@AEAPEAU?$_Tree_node@U?$pair@$$CB_KUInternalRef@@@std@@PEAX@std@@@std@@YAAEAPEAU?$_Tree_node@U?$pair@$$CB_KUInternalRef@@@std@@PEAX@0@AEAPEAU10@@Z DB 060H
	DD	imagerel $ip2state$??$forward@AEAPEAU?$_Tree_node@U?$pair@$$CB_KUInternalRef@@@std@@PEAX@std@@@std@@YAAEAPEAU?$_Tree_node@U?$pair@$$CB_KUInternalRef@@@std@@PEAX@0@AEAPEAU10@@Z
xdata	ENDS
;	COMDAT xdata
xdata	SEGMENT
$unwind$??$forward@AEAPEAU?$_Tree_node@U?$pair@$$CB_KUInternalRef@@@std@@PEAX@std@@@std@@YAAEAPEAU?$_Tree_node@U?$pair@$$CB_KUInternalRef@@@std@@PEAX@0@AEAPEAU10@@Z DD 025052a19H
	DD	010e2313H
	DD	07007001dH
	DD	05006H
	DD	imagerel __CxxFrameHandler4
	DD	imagerel $cppxdata$??$forward@AEAPEAU?$_Tree_node@U?$pair@$$CB_KUInternalRef@@@std@@PEAX@std@@@std@@YAAEAPEAU?$_Tree_node@U?$pair@$$CB_KUInternalRef@@@std@@PEAX@0@AEAPEAU10@@Z
xdata	ENDS
;	COMDAT xdata
xdata	SEGMENT
$unwind$??$?0AEB_K$$Z$$V@?$pair@$$CB_KUInternalRef@@@std@@QEAA@Upiecewise_construct_t@1@V?$tuple@AEB_K@1@V?$tuple@$$V@1@@Z DD 035053801H
	DD	011c3321H
	DD	070150027H
	DD	05014H
xdata	ENDS
;	COMDAT xdata
xdata	SEGMENT
$unwind$??$?0U_Exact_args_t@std@@AEB_K$$V$0A@@?$tuple@AEB_K@std@@QEAA@U_Exact_args_t@1@AEB_K@Z DD 025053301H
	DD	0117231cH
	DD	070100021H
	DD	0500fH
xdata	ENDS
;	COMDAT xdata
xdata	SEGMENT
$ip2state$??$forward@AEAPEAV_Facet_base@std@@@std@@YAAEAPEAV_Facet_base@0@AEAPEAV10@@Z DB 02H
	DB	00H
	DB	00H
xdata	ENDS
;	COMDAT xdata
xdata	SEGMENT
$cppxdata$??$forward@AEAPEAV_Facet_base@std@@@std@@YAAEAPEAV_Facet_base@0@AEAPEAV10@@Z DB 060H
	DD	imagerel $ip2state$??$forward@AEAPEAV_Facet_base@std@@@std@@YAAEAPEAV_Facet_base@0@AEAPEAV10@@Z
xdata	ENDS
;	COMDAT xdata
xdata	SEGMENT
$unwind$??$forward@AEAPEAV_Facet_base@std@@@std@@YAAEAPEAV_Facet_base@0@AEAPEAV10@@Z DD 025052a19H
	DD	010e2313H
	DD	07007001dH
	DD	05006H
	DD	imagerel __CxxFrameHandler4
	DD	imagerel $cppxdata$??$forward@AEAPEAV_Facet_base@std@@@std@@YAAEAPEAV_Facet_base@0@AEAPEAV10@@Z
xdata	ENDS
;	COMDAT xdata
xdata	SEGMENT
$ip2state$??$addressof@$$CBV?$_Tree_val@U?$_Tree_simple_types@U?$pair@$$CB_KUInternalRef@@@std@@@std@@@std@@@std@@YAPEBV?$_Tree_val@U?$_Tree_simple_types@U?$pair@$$CB_KUInternalRef@@@std@@@std@@@0@AEBV10@@Z DB 02H
	DB	00H
	DB	00H
xdata	ENDS
;	COMDAT xdata
xdata	SEGMENT
$cppxdata$??$addressof@$$CBV?$_Tree_val@U?$_Tree_simple_types@U?$pair@$$CB_KUInternalRef@@@std@@@std@@@std@@@std@@YAPEBV?$_Tree_val@U?$_Tree_simple_types@U?$pair@$$CB_KUInternalRef@@@std@@@std@@@0@AEBV10@@Z DB 060H
	DD	imagerel $ip2state$??$addressof@$$CBV?$_Tree_val@U?$_Tree_simple_types@U?$pair@$$CB_KUInternalRef@@@std@@@std@@@std@@@std@@YAPEBV?$_Tree_val@U?$_Tree_simple_types@U?$pair@$$CB_KUInternalRef@@@std@@@std@@@0@AEBV10@@Z
xdata	ENDS
;	COMDAT xdata
xdata	SEGMENT
$unwind$??$addressof@$$CBV?$_Tree_val@U?$_Tree_simple_types@U?$pair@$$CB_KUInternalRef@@@std@@@std@@@std@@@std@@YAPEBV?$_Tree_val@U?$_Tree_simple_types@U?$pair@$$CB_KUInternalRef@@@std@@@std@@@0@AEBV10@@Z DD 025052a19H
	DD	010e2313H
	DD	07007001dH
	DD	05006H
	DD	imagerel __CxxFrameHandler4
	DD	imagerel $cppxdata$??$addressof@$$CBV?$_Tree_val@U?$_Tree_simple_types@U?$pair@$$CB_KUInternalRef@@@std@@@std@@@std@@@std@@YAPEBV?$_Tree_val@U?$_Tree_simple_types@U?$pair@$$CB_KUInternalRef@@@std@@@std@@@0@AEBV10@@Z
xdata	ENDS
;	COMDAT xdata
xdata	SEGMENT
$ip2state$??$addressof@PEAU?$_Tree_node@U?$pair@$$CB_KUInternalRef@@@std@@PEAX@std@@@std@@YAPEAPEAU?$_Tree_node@U?$pair@$$CB_KUInternalRef@@@std@@PEAX@0@AEAPEAU10@@Z DB 02H
	DB	00H
	DB	00H
xdata	ENDS
;	COMDAT xdata
xdata	SEGMENT
$cppxdata$??$addressof@PEAU?$_Tree_node@U?$pair@$$CB_KUInternalRef@@@std@@PEAX@std@@@std@@YAPEAPEAU?$_Tree_node@U?$pair@$$CB_KUInternalRef@@@std@@PEAX@0@AEAPEAU10@@Z DB 060H
	DD	imagerel $ip2state$??$addressof@PEAU?$_Tree_node@U?$pair@$$CB_KUInternalRef@@@std@@PEAX@std@@@std@@YAPEAPEAU?$_Tree_node@U?$pair@$$CB_KUInternalRef@@@std@@PEAX@0@AEAPEAU10@@Z
xdata	ENDS
;	COMDAT xdata
xdata	SEGMENT
$unwind$??$addressof@PEAU?$_Tree_node@U?$pair@$$CB_KUInternalRef@@@std@@PEAX@std@@@std@@YAPEAPEAU?$_Tree_node@U?$pair@$$CB_KUInternalRef@@@std@@PEAX@0@AEAPEAU10@@Z DD 025052a19H
	DD	010e2313H
	DD	07007001dH
	DD	05006H
	DD	imagerel __CxxFrameHandler4
	DD	imagerel $cppxdata$??$addressof@PEAU?$_Tree_node@U?$pair@$$CB_KUInternalRef@@@std@@PEAX@std@@@std@@YAPEAPEAU?$_Tree_node@U?$pair@$$CB_KUInternalRef@@@std@@PEAX@0@AEAPEAU10@@Z
xdata	ENDS
;	COMDAT xdata
xdata	SEGMENT
$unwind$?deallocate@?$_Default_allocator_traits@V?$allocator@U_Container_proxy@std@@@std@@@std@@SAXAEAV?$allocator@U_Container_proxy@std@@@2@QEAU_Container_proxy@2@_K@Z DD 025053401H
	DD	0118231dH
	DD	07011001dH
	DD	05010H
xdata	ENDS
;	COMDAT xdata
xdata	SEGMENT
$ip2state$??$_Freenode@V?$allocator@U?$_Tree_node@U?$pair@$$CB_KUInternalRef@@@std@@PEAX@std@@@std@@@?$_Tree_node@U?$pair@$$CB_KUInternalRef@@@std@@PEAX@std@@SAXAEAV?$allocator@U?$_Tree_node@U?$pair@$$CB_KUInternalRef@@@std@@PEAX@std@@@1@PEAU01@@Z DB 02H
	DB	00H
	DB	00H
xdata	ENDS
;	COMDAT xdata
xdata	SEGMENT
$cppxdata$??$_Freenode@V?$allocator@U?$_Tree_node@U?$pair@$$CB_KUInternalRef@@@std@@PEAX@std@@@std@@@?$_Tree_node@U?$pair@$$CB_KUInternalRef@@@std@@PEAX@std@@SAXAEAV?$allocator@U?$_Tree_node@U?$pair@$$CB_KUInternalRef@@@std@@PEAX@std@@@1@PEAU01@@Z DB 060H
	DD	imagerel $ip2state$??$_Freenode@V?$allocator@U?$_Tree_node@U?$pair@$$CB_KUInternalRef@@@std@@PEAX@std@@@std@@@?$_Tree_node@U?$pair@$$CB_KUInternalRef@@@std@@PEAX@std@@SAXAEAV?$allocator@U?$_Tree_node@U?$pair@$$CB_KUInternalRef@@@std@@PEAX@std@@@1@PEAU01@@Z
xdata	ENDS
;	COMDAT xdata
xdata	SEGMENT
$unwind$??$_Freenode@V?$allocator@U?$_Tree_node@U?$pair@$$CB_KUInternalRef@@@std@@PEAX@std@@@std@@@?$_Tree_node@U?$pair@$$CB_KUInternalRef@@@std@@PEAX@std@@SAXAEAV?$allocator@U?$_Tree_node@U?$pair@$$CB_KUInternalRef@@@std@@PEAX@std@@@1@PEAU01@@Z DD 025052f19H
	DD	01132318H
	DD	0700c001dH
	DD	0500bH
	DD	imagerel __CxxFrameHandler4
	DD	imagerel $cppxdata$??$_Freenode@V?$allocator@U?$_Tree_node@U?$pair@$$CB_KUInternalRef@@@std@@PEAX@std@@@std@@@?$_Tree_node@U?$pair@$$CB_KUInternalRef@@@std@@PEAX@std@@SAXAEAV?$allocator@U?$_Tree_node@U?$pair@$$CB_KUInternalRef@@@std@@PEAX@std@@@1@PEAU01@@Z
xdata	ENDS
;	COMDAT xdata
xdata	SEGMENT
$ip2state$??$exchange@PEAU?$_Tree_node@U?$pair@$$CB_KUInternalRef@@@std@@PEAX@std@@AEAPEAU12@@std@@YAPEAU?$_Tree_node@U?$pair@$$CB_KUInternalRef@@@std@@PEAX@0@AEAPEAU10@0@Z DB 02H
	DB	00H
	DB	00H
xdata	ENDS
;	COMDAT xdata
xdata	SEGMENT
$cppxdata$??$exchange@PEAU?$_Tree_node@U?$pair@$$CB_KUInternalRef@@@std@@PEAX@std@@AEAPEAU12@@std@@YAPEAU?$_Tree_node@U?$pair@$$CB_KUInternalRef@@@std@@PEAX@0@AEAPEAU10@0@Z DB 060H
	DD	imagerel $ip2state$??$exchange@PEAU?$_Tree_node@U?$pair@$$CB_KUInternalRef@@@std@@PEAX@std@@AEAPEAU12@@std@@YAPEAU?$_Tree_node@U?$pair@$$CB_KUInternalRef@@@std@@PEAX@0@AEAPEAU10@0@Z
xdata	ENDS
;	COMDAT xdata
xdata	SEGMENT
$unwind$??$exchange@PEAU?$_Tree_node@U?$pair@$$CB_KUInternalRef@@@std@@PEAX@std@@AEAPEAU12@@std@@YAPEAU?$_Tree_node@U?$pair@$$CB_KUInternalRef@@@std@@PEAX@0@AEAPEAU10@0@Z DD 025052f19H
	DD	01132318H
	DD	0700c0021H
	DD	0500bH
	DD	imagerel __CxxFrameHandler4
	DD	imagerel $cppxdata$??$exchange@PEAU?$_Tree_node@U?$pair@$$CB_KUInternalRef@@@std@@PEAX@std@@AEAPEAU12@@std@@YAPEAU?$_Tree_node@U?$pair@$$CB_KUInternalRef@@@std@@PEAX@0@AEAPEAU10@0@Z
xdata	ENDS
;	COMDAT xdata
xdata	SEGMENT
$ip2state$??$forward@PEAU?$_Tree_node@U?$pair@$$CB_KUInternalRef@@@std@@PEAX@std@@@std@@YA$$QEAPEAU?$_Tree_node@U?$pair@$$CB_KUInternalRef@@@std@@PEAX@0@AEAPEAU10@@Z DB 02H
	DB	00H
	DB	00H
xdata	ENDS
;	COMDAT xdata
xdata	SEGMENT
$cppxdata$??$forward@PEAU?$_Tree_node@U?$pair@$$CB_KUInternalRef@@@std@@PEAX@std@@@std@@YA$$QEAPEAU?$_Tree_node@U?$pair@$$CB_KUInternalRef@@@std@@PEAX@0@AEAPEAU10@@Z DB 060H
	DD	imagerel $ip2state$??$forward@PEAU?$_Tree_node@U?$pair@$$CB_KUInternalRef@@@std@@PEAX@std@@@std@@YA$$QEAPEAU?$_Tree_node@U?$pair@$$CB_KUInternalRef@@@std@@PEAX@0@AEAPEAU10@@Z
xdata	ENDS
;	COMDAT xdata
xdata	SEGMENT
$unwind$??$forward@PEAU?$_Tree_node@U?$pair@$$CB_KUInternalRef@@@std@@PEAX@std@@@std@@YA$$QEAPEAU?$_Tree_node@U?$pair@$$CB_KUInternalRef@@@std@@PEAX@0@AEAPEAU10@@Z DD 025052a19H
	DD	010e2313H
	DD	07007001dH
	DD	05006H
	DD	imagerel __CxxFrameHandler4
	DD	imagerel $cppxdata$??$forward@PEAU?$_Tree_node@U?$pair@$$CB_KUInternalRef@@@std@@PEAX@std@@@std@@YA$$QEAPEAU?$_Tree_node@U?$pair@$$CB_KUInternalRef@@@std@@PEAX@0@AEAPEAU10@@Z
xdata	ENDS
;	COMDAT xdata
xdata	SEGMENT
$ip2state$??$_Construct_in_place@PEAU?$_Tree_node@U?$pair@$$CB_KUInternalRef@@@std@@PEAX@std@@AEAPEAU12@@std@@YAXAEAPEAU?$_Tree_node@U?$pair@$$CB_KUInternalRef@@@std@@PEAX@0@0@Z DB 02H
	DB	00H
	DB	00H
xdata	ENDS
;	COMDAT xdata
xdata	SEGMENT
$cppxdata$??$_Construct_in_place@PEAU?$_Tree_node@U?$pair@$$CB_KUInternalRef@@@std@@PEAX@std@@AEAPEAU12@@std@@YAXAEAPEAU?$_Tree_node@U?$pair@$$CB_KUInternalRef@@@std@@PEAX@0@0@Z DB 060H
	DD	imagerel $ip2state$??$_Construct_in_place@PEAU?$_Tree_node@U?$pair@$$CB_KUInternalRef@@@std@@PEAX@std@@AEAPEAU12@@std@@YAXAEAPEAU?$_Tree_node@U?$pair@$$CB_KUInternalRef@@@std@@PEAX@0@0@Z
xdata	ENDS
;	COMDAT xdata
xdata	SEGMENT
$unwind$??$_Construct_in_place@PEAU?$_Tree_node@U?$pair@$$CB_KUInternalRef@@@std@@PEAX@std@@AEAPEAU12@@std@@YAXAEAPEAU?$_Tree_node@U?$pair@$$CB_KUInternalRef@@@std@@PEAX@0@0@Z DD 025052f19H
	DD	01132318H
	DD	0700c0021H
	DD	0500bH
	DD	imagerel __CxxFrameHandler4
	DD	imagerel $cppxdata$??$_Construct_in_place@PEAU?$_Tree_node@U?$pair@$$CB_KUInternalRef@@@std@@PEAX@std@@AEAPEAU12@@std@@YAXAEAPEAU?$_Tree_node@U?$pair@$$CB_KUInternalRef@@@std@@PEAX@0@0@Z
xdata	ENDS
;	COMDAT xdata
xdata	SEGMENT
$unwind$??$construct@U?$pair@$$CB_KUInternalRef@@@std@@AEBUpiecewise_construct_t@2@V?$tuple@AEB_K@2@V?$tuple@$$V@2@@?$_Default_allocator_traits@V?$allocator@U?$_Tree_node@U?$pair@$$CB_KUInternalRef@@@std@@PEAX@std@@@std@@@std@@SAXAEAV?$allocator@U?$_Tree_node@U?$pair@$$CB_KUInternalRef@@@std@@PEAX@std@@@1@QEAU?$pair@$$CB_KUInternalRef@@@1@AEBUpiecewise_construct_t@1@$$QEAV?$tuple@AEB_K@1@$$QEAV?$tuple@$$V@1@@Z DD 025053901H
	DD	011d2322H
	DD	07016003fH
	DD	05015H
xdata	ENDS
;	COMDAT xdata
xdata	SEGMENT
$ip2state$??$forward@V?$tuple@$$V@std@@@std@@YA$$QEAV?$tuple@$$V@0@AEAV10@@Z DB 02H
	DB	00H
	DB	00H
xdata	ENDS
;	COMDAT xdata
xdata	SEGMENT
$cppxdata$??$forward@V?$tuple@$$V@std@@@std@@YA$$QEAV?$tuple@$$V@0@AEAV10@@Z DB 060H
	DD	imagerel $ip2state$??$forward@V?$tuple@$$V@std@@@std@@YA$$QEAV?$tuple@$$V@0@AEAV10@@Z
xdata	ENDS
;	COMDAT xdata
xdata	SEGMENT
$unwind$??$forward@V?$tuple@$$V@std@@@std@@YA$$QEAV?$tuple@$$V@0@AEAV10@@Z DD 025052a19H
	DD	010e2313H
	DD	07007001dH
	DD	05006H
	DD	imagerel __CxxFrameHandler4
	DD	imagerel $cppxdata$??$forward@V?$tuple@$$V@std@@@std@@YA$$QEAV?$tuple@$$V@0@AEAV10@@Z
xdata	ENDS
;	COMDAT xdata
xdata	SEGMENT
$ip2state$??$forward@V?$tuple@AEB_K@std@@@std@@YA$$QEAV?$tuple@AEB_K@0@AEAV10@@Z DB 02H
	DB	00H
	DB	00H
xdata	ENDS
;	COMDAT xdata
xdata	SEGMENT
$cppxdata$??$forward@V?$tuple@AEB_K@std@@@std@@YA$$QEAV?$tuple@AEB_K@0@AEAV10@@Z DB 060H
	DD	imagerel $ip2state$??$forward@V?$tuple@AEB_K@std@@@std@@YA$$QEAV?$tuple@AEB_K@0@AEAV10@@Z
xdata	ENDS
;	COMDAT xdata
xdata	SEGMENT
$unwind$??$forward@V?$tuple@AEB_K@std@@@std@@YA$$QEAV?$tuple@AEB_K@0@AEAV10@@Z DD 025052a19H
	DD	010e2313H
	DD	07007001dH
	DD	05006H
	DD	imagerel __CxxFrameHandler4
	DD	imagerel $cppxdata$??$forward@V?$tuple@AEB_K@std@@@std@@YA$$QEAV?$tuple@AEB_K@0@AEAV10@@Z
xdata	ENDS
;	COMDAT xdata
xdata	SEGMENT
